ARM GAS  C:\Users\allu9\AppData\Local\Temp\ccxVhHeO.s 			page 1


   1              		.syntax unified
   2              		.cpu cortex-m3
   3              		.fpu softvfp
   4              		.eabi_attribute 20, 1
   5              		.eabi_attribute 21, 1
   6              		.eabi_attribute 23, 3
   7              		.eabi_attribute 24, 1
   8              		.eabi_attribute 25, 1
   9              		.eabi_attribute 26, 1
  10              		.eabi_attribute 30, 1
  11              		.eabi_attribute 34, 1
  12              		.eabi_attribute 18, 4
  13              		.thumb
  14              		.file	"Drive.c"
  15              		.text
  16              	.Ltext0:
  17              		.cfi_sections	.debug_frame
  18              		.section	.text.Drive,"ax",%progbits
  19              		.align	2
  20              		.global	Drive
  21              		.thumb
  22              		.thumb_func
  23              		.type	Drive, %function
  24              	Drive:
  25              	.LFB63:
  26              		.file 1 "Drive.c"
   1:Drive.c       **** /**
   2:Drive.c       ****  * @file    Drive.c
   3:Drive.c       ****  * @brief   ASDF Written by me AKA VE's
   4:Drive.c       ****  * @details included in Zumo shield
   5:Drive.c       **** */
   6:Drive.c       **** #include "Drive.h"
   7:Drive.c       **** #include "Motor.h"
   8:Drive.c       **** int dir;
   9:Drive.c       **** 
  10:Drive.c       **** void Drive (int l3, int l1, int r1, int r3)
  11:Drive.c       **** {
  27              		.loc 1 11 0
  28              		.cfi_startproc
  29              		@ args = 0, pretend = 0, frame = 0
  30              		@ frame_needed = 0, uses_anonymous_args = 0
  31              	.LVL0:
  32 0000 38B5     		push	{r3, r4, r5, lr}
  33              		.cfi_def_cfa_offset 16
  34              		.cfi_offset 3, -16
  35              		.cfi_offset 4, -12
  36              		.cfi_offset 5, -8
  37              		.cfi_offset 14, -4
  12:Drive.c       ****     if (r1>12000 && l1>12000)
  38              		.loc 1 12 0
  39 0002 42F6E064 		movw	r4, #12000
  40 0006 A242     		cmp	r2, r4
  41 0008 09DD     		ble	.L2
  42              		.loc 1 12 0 is_stmt 0 discriminator 1
  43 000a A142     		cmp	r1, r4
  44 000c 07DD     		ble	.L2
  13:Drive.c       ****     {
ARM GAS  C:\Users\allu9\AppData\Local\Temp\ccxVhHeO.s 			page 2


  14:Drive.c       ****         motor_forward(90,1);
  45              		.loc 1 14 0 is_stmt 1
  46 000e 5A20     		movs	r0, #90
  47              	.LVL1:
  48 0010 0121     		movs	r1, #1
  49              	.LVL2:
  50 0012 FFF7FEFF 		bl	motor_forward
  51              	.LVL3:
  15:Drive.c       ****         dir= 2;
  52              		.loc 1 15 0
  53 0016 0222     		movs	r2, #2
  54 0018 194B     		ldr	r3, .L11
  55 001a 1A60     		str	r2, [r3]
  56 001c 38BD     		pop	{r3, r4, r5, pc}
  57              	.LVL4:
  58              	.L2:
  16:Drive.c       ****     }
  17:Drive.c       ****     else if (( l1<12000&&r1>12000)||dir==1)
  59              		.loc 1 17 0
  60 001e 42F6DF64 		movw	r4, #11999
  61 0022 A142     		cmp	r1, r4
  62 0024 03DC     		bgt	.L4
  63              		.loc 1 17 0 is_stmt 0 discriminator 1
  64 0026 42F6E064 		movw	r4, #12000
  65 002a A242     		cmp	r2, r4
  66 002c 03DC     		bgt	.L5
  67              	.L4:
  68              		.loc 1 17 0 discriminator 3
  69 002e 144C     		ldr	r4, .L11
  70 0030 2468     		ldr	r4, [r4]
  71 0032 012C     		cmp	r4, #1
  72 0034 07D1     		bne	.L6
  73              	.L5:
  18:Drive.c       ****     {
  19:Drive.c       ****         dir = 1;
  74              		.loc 1 19 0 is_stmt 1
  75 0036 0122     		movs	r2, #1
  76              	.LVL5:
  77 0038 114B     		ldr	r3, .L11
  78              	.LVL6:
  79 003a 1A60     		str	r2, [r3]
  20:Drive.c       ****         motor_turn(150,0,1);
  80              		.loc 1 20 0
  81 003c 9620     		movs	r0, #150
  82              	.LVL7:
  83 003e 0021     		movs	r1, #0
  84              	.LVL8:
  85 0040 FFF7FEFF 		bl	motor_turn
  86              	.LVL9:
  87 0044 38BD     		pop	{r3, r4, r5, pc}
  88              	.LVL10:
  89              	.L6:
  21:Drive.c       ****         
  22:Drive.c       ****         
  23:Drive.c       ****     }
  24:Drive.c       ****     else if (( r1<12000 && l1>12000)||dir==0)
  90              		.loc 1 24 0
ARM GAS  C:\Users\allu9\AppData\Local\Temp\ccxVhHeO.s 			page 3


  91 0046 42F6DF65 		movw	r5, #11999
  92 004a AA42     		cmp	r2, r5
  93 004c 03DC     		bgt	.L7
  94              		.loc 1 24 0 is_stmt 0 discriminator 1
  95 004e 42F6E062 		movw	r2, #12000
  96              	.LVL11:
  97 0052 9142     		cmp	r1, r2
  98 0054 00DC     		bgt	.L8
  99              	.L7:
 100              		.loc 1 24 0 discriminator 3
 101 0056 3CB9     		cbnz	r4, .L9
 102              	.L8:
  25:Drive.c       ****     {
  26:Drive.c       ****         dir = 0;
 103              		.loc 1 26 0 is_stmt 1
 104 0058 0020     		movs	r0, #0
 105              	.LVL12:
 106 005a 094B     		ldr	r3, .L11
 107              	.LVL13:
 108 005c 1860     		str	r0, [r3]
  27:Drive.c       ****         motor_turn(0,150,1);
 109              		.loc 1 27 0
 110 005e 9621     		movs	r1, #150
 111              	.LVL14:
 112 0060 0122     		movs	r2, #1
 113 0062 FFF7FEFF 		bl	motor_turn
 114              	.LVL15:
 115 0066 38BD     		pop	{r3, r4, r5, pc}
 116              	.LVL16:
 117              	.L9:
  28:Drive.c       ****     }
  29:Drive.c       **** 
  30:Drive.c       ****     else if (l3>20000&&r3>20000)
 118              		.loc 1 30 0
 119 0068 44F62062 		movw	r2, #20000
 120 006c 9042     		cmp	r0, r2
 121 006e 05DD     		ble	.L1
 122              		.loc 1 30 0 is_stmt 0 discriminator 1
 123 0070 9342     		cmp	r3, r2
 124 0072 03DD     		ble	.L1
  31:Drive.c       ****     {motor_backward(0,1);
 125              		.loc 1 31 0 is_stmt 1
 126 0074 0020     		movs	r0, #0
 127              	.LVL17:
 128 0076 0121     		movs	r1, #1
 129              	.LVL18:
 130 0078 FFF7FEFF 		bl	motor_backward
 131              	.LVL19:
 132              	.L1:
 133 007c 38BD     		pop	{r3, r4, r5, pc}
 134              	.L12:
 135 007e 00BF     		.align	2
 136              	.L11:
 137 0080 00000000 		.word	dir
 138              		.cfi_endproc
 139              	.LFE63:
 140              		.size	Drive, .-Drive
ARM GAS  C:\Users\allu9\AppData\Local\Temp\ccxVhHeO.s 			page 4


 141              		.comm	dir,4,4
 142              		.text
 143              	.Letext0:
 144              		.file 2 "c:\\program files (x86)\\cypress\\psoc creator\\4.0\\psoc creator\\import\\gnu\\arm\\4.9.
 145              		.file 3 "c:\\program files (x86)\\cypress\\psoc creator\\4.0\\psoc creator\\import\\gnu\\arm\\4.9.
 146              		.file 4 "Generated_Source\\PSoC5/cytypes.h"
 147              		.file 5 ".\\ZumoLibrary/Motor.h"
 148              		.file 6 "Generated_Source\\PSoC5/core_cm3.h"