ARM GAS  C:\Users\Joonas\AppData\Local\Temp\cc3lkpH6.s 			page 1


   1              		.syntax unified
   2              		.cpu cortex-m3
   3              		.fpu softvfp
   4              		.eabi_attribute 20, 1
   5              		.eabi_attribute 21, 1
   6              		.eabi_attribute 23, 3
   7              		.eabi_attribute 24, 1
   8              		.eabi_attribute 25, 1
   9              		.eabi_attribute 26, 1
  10              		.eabi_attribute 30, 1
  11              		.eabi_attribute 34, 1
  12              		.eabi_attribute 18, 4
  13              		.thumb
  14              		.file	"main.c"
  15              		.text
  16              	.Ltext0:
  17              		.cfi_sections	.debug_frame
  18              		.section	.text.main,"ax",%progbits
  19              		.align	2
  20              		.global	main
  21              		.thumb
  22              		.thumb_func
  23              		.type	main, %function
  24              	main:
  25              	.LFB63:
  26              		.file 1 "main.c"
   1:main.c        **** /**
   2:main.c        **** * @mainpage ZumoBot Project
   3:main.c        **** * @brief    You can make your own ZumoBot with various sensors.
   4:main.c        **** * @details  <br><br>
   5:main.c        ****     <p>
   6:main.c        ****     <B>General</B><br>
   7:main.c        ****     You will use Pololu Zumo Shields for your robot project with CY8CKIT-059(PSoC 5LP) from Cypress
   8:main.c        ****     library has basic methods of various sensors and communications so that you can make what you w
   9:main.c        ****     <br><br>
  10:main.c        ****     </p>
  11:main.c        ****     
  12:main.c        ****     <p>
  13:main.c        ****     <B>Sensors</B><br>
  14:main.c        ****     &nbsp;Included: <br>
  15:main.c        ****         &nbsp;&nbsp;&nbsp;&nbsp;LSM303D: Accelerometer & Magnetometer<br>
  16:main.c        ****         &nbsp;&nbsp;&nbsp;&nbsp;L3GD20H: Gyroscope<br>
  17:main.c        ****         &nbsp;&nbsp;&nbsp;&nbsp;Reflectance sensor<br>
  18:main.c        ****         &nbsp;&nbsp;&nbsp;&nbsp;Motors
  19:main.c        ****     &nbsp;Wii nunchuck<br>
  20:main.c        ****     &nbsp;TSOP-2236: IR Receiver<br>
  21:main.c        ****     &nbsp;HC-SR04: Ultrasonic sensor<br>
  22:main.c        ****     &nbsp;APDS-9301: Ambient light sensor<br>
  23:main.c        ****     &nbsp;IR LED <br><br><br>
  24:main.c        ****     </p>
  25:main.c        ****     
  26:main.c        ****     <p>
  27:main.c        ****     <B>Communication</B><br>
  28:main.c        ****     I2C, UART, Serial<br>
  29:main.c        ****     </p>
  30:main.c        **** */
  31:main.c        **** 
ARM GAS  C:\Users\Joonas\AppData\Local\Temp\cc3lkpH6.s 			page 2


  32:main.c        **** #include <project.h>
  33:main.c        **** #include <stdio.h>
  34:main.c        **** #include "Motor.h"
  35:main.c        **** #include "Ultra.h"
  36:main.c        **** #include "Nunchuk.h"
  37:main.c        **** #include "Reflectance.h"
  38:main.c        **** #include "I2C_made.h"
  39:main.c        **** #include "Gyro.h"
  40:main.c        **** #include "Accel_magnet.h"
  41:main.c        **** #include "IR.h"
  42:main.c        **** #include "Ambient.h"
  43:main.c        **** #include "Beep.h"
  44:main.c        **** 
  45:main.c        **** int rread(void);
  46:main.c        **** 
  47:main.c        **** /**
  48:main.c        ****  * @file    main.c
  49:main.c        ****  * @brief   
  50:main.c        ****  * @details  ** You should enable global interrupt for operating properly. **<br>&nbsp;&nbsp;&nbsp;
  51:main.c        **** */
  52:main.c        **** 
  53:main.c        **** 
  54:main.c        **** float checkBat();
  55:main.c        **** 
  56:main.c        **** //battery level//
  57:main.c        **** int main()
  58:main.c        **** {
  27              		.loc 1 58 0
  28              		.cfi_startproc
  29              		@ args = 0, pretend = 0, frame = 48
  30              		@ frame_needed = 0, uses_anonymous_args = 0
  31 0000 10B5     		push	{r4, lr}
  32              		.cfi_def_cfa_offset 8
  33              		.cfi_offset 4, -8
  34              		.cfi_offset 14, -4
  35 0002 8EB0     		sub	sp, sp, #56
  36              		.cfi_def_cfa_offset 64
  37              	.LVL0:
  59:main.c        ****     struct sensors_ ref;
  60:main.c        ****     struct sensors_ dig;
  61:main.c        ****     
  62:main.c        ****     int i;
  63:main.c        ****     int wCalib = 1, bCalib = 1;
  64:main.c        ****     
  65:main.c        ****     int rajaArvo[4],b[4],w[4];
  66:main.c        ****     
  67:main.c        ****     CyGlobalIntEnable; 
  38              		.loc 1 67 0
  39              	@ 67 "main.c" 1
  40 0004 62B6     		CPSIE   i
  41              	@ 0 "" 2
  68:main.c        ****     UART_1_Start();
  42              		.loc 1 68 0
  43              		.thumb
  44 0006 FFF7FEFF 		bl	UART_1_Start
  45              	.LVL1:
  69:main.c        ****     ADC_Battery_Start();        
ARM GAS  C:\Users\Joonas\AppData\Local\Temp\cc3lkpH6.s 			page 3


  46              		.loc 1 69 0
  47 000a FFF7FEFF 		bl	ADC_Battery_Start
  48              	.LVL2:
  70:main.c        ****     //int delay= 1;
  71:main.c        ****     
  72:main.c        ****     printf("\nBoot\n");
  49              		.loc 1 72 0
  50 000e 6648     		ldr	r0, .L22
  51 0010 FFF7FEFF 		bl	puts
  52              	.LVL3:
  73:main.c        **** 
  74:main.c        ****     //BatteryLed_Write(1); // Switch led on 
  75:main.c        ****     BatteryLed_Write(0); // Switch led off 
  53              		.loc 1 75 0
  54 0014 0020     		movs	r0, #0
  55 0016 FFF7FEFF 		bl	BatteryLed_Write
  56              	.LVL4:
  76:main.c        ****     //uint8 button;
  77:main.c        ****     //button = SW1_Read(); // read SW1 on pSoC board
  78:main.c        **** 
  79:main.c        ****     
  80:main.c        ****         sensor_isr_StartEx(sensor_isr_handler);
  57              		.loc 1 80 0
  58 001a 6448     		ldr	r0, .L22+4
  59 001c FFF7FEFF 		bl	sensor_isr_StartEx
  60              	.LVL5:
  81:main.c        ****     
  82:main.c        ****     IR_led_Write(1);
  61              		.loc 1 82 0
  62 0020 0120     		movs	r0, #1
  63 0022 FFF7FEFF 		bl	IR_led_Write
  64              	.LVL6:
  83:main.c        ****     reflectance_start();
  65              		.loc 1 83 0
  66 0026 FFF7FEFF 		bl	reflectance_start
  67              	.LVL7:
  63:main.c        ****     
  68              		.loc 1 63 0
  69 002a 0124     		movs	r4, #1
  84:main.c        ****     
  85:main.c        ****     while(wCalib){
  70              		.loc 1 85 0
  71 002c 12E0     		b	.L3
  72              	.LVL8:
  73              	.L4:
  86:main.c        ****         if(SW1_Read()==0){
  74              		.loc 1 86 0
  75 002e FFF7FEFF 		bl	SW1_Read
  76              	.LVL9:
  77 0032 78B9     		cbnz	r0, .L3
  87:main.c        ****             
  88:main.c        ****             reflectance_read(&ref);
  78              		.loc 1 88 0
  79 0034 0CA8     		add	r0, sp, #48
  80 0036 FFF7FEFF 		bl	reflectance_read
  81              	.LVL10:
  89:main.c        ****             w[0] = ref.l3;
ARM GAS  C:\Users\Joonas\AppData\Local\Temp\cc3lkpH6.s 			page 4


  82              		.loc 1 89 0
  83 003a BDF83030 		ldrh	r3, [sp, #48]
  84 003e 0293     		str	r3, [sp, #8]
  90:main.c        ****             w[1] = ref.l1;
  85              		.loc 1 90 0
  86 0040 BDF83230 		ldrh	r3, [sp, #50]
  87 0044 0393     		str	r3, [sp, #12]
  91:main.c        ****             w[2] = ref.r1;
  88              		.loc 1 91 0
  89 0046 BDF83430 		ldrh	r3, [sp, #52]
  90 004a 0493     		str	r3, [sp, #16]
  92:main.c        ****             w[3] = ref.r3;
  91              		.loc 1 92 0
  92 004c BDF83630 		ldrh	r3, [sp, #54]
  93 0050 0593     		str	r3, [sp, #20]
  94              	.LVL11:
  93:main.c        ****             
  94:main.c        ****             wCalib = 0;
  95              		.loc 1 94 0
  96 0052 0024     		movs	r4, #0
  97              	.LVL12:
  98              	.L3:
  85:main.c        ****         if(SW1_Read()==0){
  99              		.loc 1 85 0
 100 0054 002C     		cmp	r4, #0
 101 0056 EAD1     		bne	.L4
  95:main.c        ****         }
  96:main.c        ****     }
  97:main.c        ****     BatteryLed_Write(1);
 102              		.loc 1 97 0
 103 0058 0120     		movs	r0, #1
 104 005a FFF7FEFF 		bl	BatteryLed_Write
 105              	.LVL13:
  98:main.c        ****     CyDelay(1000);
 106              		.loc 1 98 0
 107 005e 4FF47A70 		mov	r0, #1000
 108 0062 FFF7FEFF 		bl	CyDelay
 109              	.LVL14:
  99:main.c        ****     BatteryLed_Write(0);
 110              		.loc 1 99 0
 111 0066 0020     		movs	r0, #0
 112 0068 FFF7FEFF 		bl	BatteryLed_Write
 113              	.LVL15:
  63:main.c        ****     
 114              		.loc 1 63 0
 115 006c 0124     		movs	r4, #1
 116              	.LVL16:
 100:main.c        ****     
 101:main.c        ****     while(bCalib){
 117              		.loc 1 101 0
 118 006e 12E0     		b	.L6
 119              	.LVL17:
 120              	.L7:
 102:main.c        ****         if(SW1_Read()==0){
 121              		.loc 1 102 0
 122 0070 FFF7FEFF 		bl	SW1_Read
 123              	.LVL18:
ARM GAS  C:\Users\Joonas\AppData\Local\Temp\cc3lkpH6.s 			page 5


 124 0074 78B9     		cbnz	r0, .L6
 103:main.c        ****             
 104:main.c        ****             reflectance_read(&ref);
 125              		.loc 1 104 0
 126 0076 0CA8     		add	r0, sp, #48
 127 0078 FFF7FEFF 		bl	reflectance_read
 128              	.LVL19:
 105:main.c        ****             b[0] = ref.l3;
 129              		.loc 1 105 0
 130 007c BDF83030 		ldrh	r3, [sp, #48]
 131 0080 0693     		str	r3, [sp, #24]
 106:main.c        ****             b[1] = ref.l1;
 132              		.loc 1 106 0
 133 0082 BDF83230 		ldrh	r3, [sp, #50]
 134 0086 0793     		str	r3, [sp, #28]
 107:main.c        ****             b[2] = ref.r1;
 135              		.loc 1 107 0
 136 0088 BDF83430 		ldrh	r3, [sp, #52]
 137 008c 0893     		str	r3, [sp, #32]
 108:main.c        ****             b[3] = ref.r3;
 138              		.loc 1 108 0
 139 008e BDF83630 		ldrh	r3, [sp, #54]
 140 0092 0993     		str	r3, [sp, #36]
 141              	.LVL20:
 109:main.c        ****             
 110:main.c        ****             bCalib = 0;
 142              		.loc 1 110 0
 143 0094 0024     		movs	r4, #0
 144              	.LVL21:
 145              	.L6:
 101:main.c        ****         if(SW1_Read()==0){
 146              		.loc 1 101 0
 147 0096 002C     		cmp	r4, #0
 148 0098 EAD1     		bne	.L7
 111:main.c        ****         }
 112:main.c        ****         
 113:main.c        ****     }
 114:main.c        ****     
 115:main.c        ****     BatteryLed_Write(1);
 149              		.loc 1 115 0
 150 009a 0120     		movs	r0, #1
 151 009c FFF7FEFF 		bl	BatteryLed_Write
 152              	.LVL22:
 116:main.c        ****     CyDelay(1000);
 153              		.loc 1 116 0
 154 00a0 4FF47A70 		mov	r0, #1000
 155 00a4 FFF7FEFF 		bl	CyDelay
 156              	.LVL23:
 117:main.c        ****     BatteryLed_Write(0);
 157              		.loc 1 117 0
 158 00a8 0020     		movs	r0, #0
 159 00aa FFF7FEFF 		bl	BatteryLed_Write
 160              	.LVL24:
 118:main.c        ****     
 119:main.c        ****     for(i=0; i<4; i++){
 161              		.loc 1 119 0
 162 00ae 0EE0     		b	.L8
ARM GAS  C:\Users\Joonas\AppData\Local\Temp\cc3lkpH6.s 			page 6


 163              	.LVL25:
 164              	.L9:
 120:main.c        ****         rajaArvo[i] = (b[i] + w[i]) / 2;
 165              		.loc 1 120 0 discriminator 3
 166 00b0 0EAB     		add	r3, sp, #56
 167 00b2 03EB8403 		add	r3, r3, r4, lsl #2
 168 00b6 53F8201C 		ldr	r1, [r3, #-32]
 169 00ba 53F8303C 		ldr	r3, [r3, #-48]
 170 00be 1944     		add	r1, r1, r3
 171 00c0 01EBD171 		add	r1, r1, r1, lsr #31
 121:main.c        ****         printf("%d ", rajaArvo[i]);
 172              		.loc 1 121 0 discriminator 3
 173 00c4 3A48     		ldr	r0, .L22+8
 174 00c6 4910     		asrs	r1, r1, #1
 175 00c8 FFF7FEFF 		bl	printf
 176              	.LVL26:
 119:main.c        ****         rajaArvo[i] = (b[i] + w[i]) / 2;
 177              		.loc 1 119 0 discriminator 3
 178 00cc 0134     		adds	r4, r4, #1
 179              	.LVL27:
 180              	.L8:
 119:main.c        ****         rajaArvo[i] = (b[i] + w[i]) / 2;
 181              		.loc 1 119 0 is_stmt 0 discriminator 1
 182 00ce 032C     		cmp	r4, #3
 183 00d0 EEDD     		ble	.L9
 122:main.c        ****     }
 123:main.c        ****     printf("\n");
 184              		.loc 1 123 0 is_stmt 1
 185 00d2 0A20     		movs	r0, #10
 186 00d4 FFF7FEFF 		bl	putchar
 187              	.LVL28:
 188              	.L10:
 124:main.c        ****     
 125:main.c        ****     while(SW1_Read()){
 189              		.loc 1 125 0 discriminator 1
 190 00d8 FFF7FEFF 		bl	SW1_Read
 191              	.LVL29:
 192 00dc 0028     		cmp	r0, #0
 193 00de FBD1     		bne	.L10
 194              	.L11:
 126:main.c        ****         
 127:main.c        ****     }
 128:main.c        ****     
 129:main.c        **** for(;;)
 130:main.c        **** {
 131:main.c        ****     
 132:main.c        ****     if(SW1_Read()==0)
 195              		.loc 1 132 0
 196 00e0 FFF7FEFF 		bl	SW1_Read
 197              	.LVL30:
 198 00e4 0028     		cmp	r0, #0
 199 00e6 FBD1     		bne	.L11
 133:main.c        ****     {
 134:main.c        ****         CyDelay(1000);
 200              		.loc 1 134 0
 201 00e8 4FF47A70 		mov	r0, #1000
 202 00ec FFF7FEFF 		bl	CyDelay
ARM GAS  C:\Users\Joonas\AppData\Local\Temp\cc3lkpH6.s 			page 7


 203              	.LVL31:
 135:main.c        ****         motor_start();
 204              		.loc 1 135 0
 205 00f0 FFF7FEFF 		bl	motor_start
 206              	.LVL32:
 207              	.L12:
 136:main.c        ****         
 137:main.c        ****         
 138:main.c        ****         
 139:main.c        ****         for(;;)
 140:main.c        ****         {
 141:main.c        ****             
 142:main.c        ****             //reflectance_read(&ref);
 143:main.c        ****             //printf("%d %d %d %d \r\n", ref.l3, ref.l1, ref.r1, ref.r3);       //print out each pe
 144:main.c        ****             reflectance_digital(&dig);      //print out 0 or 1 according to results of reflectance 
 208              		.loc 1 144 0
 209 00f4 0AA8     		add	r0, sp, #40
 210 00f6 FFF7FEFF 		bl	reflectance_digital
 211              	.LVL33:
 145:main.c        ****             printf("%d %d %d %d \r\n", dig.l3, dig.l1, dig.r1, dig.r3);        //print out 0 or 1 a
 212              		.loc 1 145 0
 213 00fa BDF82810 		ldrh	r1, [sp, #40]
 214 00fe BDF82A20 		ldrh	r2, [sp, #42]
 215 0102 BDF82C30 		ldrh	r3, [sp, #44]
 216 0106 BDF82E00 		ldrh	r0, [sp, #46]
 217 010a 0090     		str	r0, [sp]
 218 010c 2948     		ldr	r0, .L22+12
 219 010e FFF7FEFF 		bl	printf
 220              	.LVL34:
 146:main.c        ****             
 147:main.c        ****             if((dig.r3==1 && dig.l3==0) || (dig.r3==1 && dig.l3==0 && dig.l1==0 && dig.r1==0))
 221              		.loc 1 147 0
 222 0112 BDF82E30 		ldrh	r3, [sp, #46]
 223 0116 012B     		cmp	r3, #1
 224 0118 02D1     		bne	.L13
 225              		.loc 1 147 0 is_stmt 0 discriminator 1
 226 011a BDF82820 		ldrh	r2, [sp, #40]
 227 011e 52B1     		cbz	r2, .L14
 228              	.L13:
 229              		.loc 1 147 0 discriminator 3
 230 0120 012B     		cmp	r3, #1
 231 0122 11D1     		bne	.L15
 232              		.loc 1 147 0 discriminator 4
 233 0124 BDF82820 		ldrh	r2, [sp, #40]
 234 0128 72B9     		cbnz	r2, .L15
 235              		.loc 1 147 0 discriminator 5
 236 012a BDF82A20 		ldrh	r2, [sp, #42]
 237 012e 5AB9     		cbnz	r2, .L15
 238              		.loc 1 147 0 discriminator 6
 239 0130 BDF82C20 		ldrh	r2, [sp, #44]
 240 0134 42B9     		cbnz	r2, .L15
 241              	.L14:
 148:main.c        ****             {
 149:main.c        ****                 printf("left\n");
 242              		.loc 1 149 0 is_stmt 1
 243 0136 2048     		ldr	r0, .L22+16
 244 0138 FFF7FEFF 		bl	puts
ARM GAS  C:\Users\Joonas\AppData\Local\Temp\cc3lkpH6.s 			page 8


 245              	.LVL35:
 150:main.c        ****                 motor_turn(0,100,50);
 246              		.loc 1 150 0
 247 013c 0020     		movs	r0, #0
 248 013e 6421     		movs	r1, #100
 249 0140 3222     		movs	r2, #50
 250 0142 FFF7FEFF 		bl	motor_turn
 251              	.LVL36:
 252 0146 D5E7     		b	.L12
 253              	.L15:
 151:main.c        ****             }
 152:main.c        ****             
 153:main.c        ****             else if((dig.r3==0 && dig.l3==1) || (dig.r3==0 && dig.l3==1 && dig.l1==0 && dig.r1==0))
 254              		.loc 1 153 0
 255 0148 1BB9     		cbnz	r3, .L17
 256              		.loc 1 153 0 is_stmt 0 discriminator 1
 257 014a BDF82820 		ldrh	r2, [sp, #40]
 258 014e 012A     		cmp	r2, #1
 259 0150 0AD0     		beq	.L18
 260              	.L17:
 261              		.loc 1 153 0 discriminator 3
 262 0152 93B9     		cbnz	r3, .L19
 263              		.loc 1 153 0 discriminator 4
 264 0154 BDF82820 		ldrh	r2, [sp, #40]
 265 0158 012A     		cmp	r2, #1
 266 015a 0ED1     		bne	.L19
 267              		.loc 1 153 0 discriminator 5
 268 015c BDF82A20 		ldrh	r2, [sp, #42]
 269 0160 5AB9     		cbnz	r2, .L19
 270              		.loc 1 153 0 discriminator 6
 271 0162 BDF82C20 		ldrh	r2, [sp, #44]
 272 0166 42B9     		cbnz	r2, .L19
 273              	.L18:
 154:main.c        ****             {
 155:main.c        ****                 printf("right\n");
 274              		.loc 1 155 0 is_stmt 1
 275 0168 1448     		ldr	r0, .L22+20
 276 016a FFF7FEFF 		bl	puts
 277              	.LVL37:
 156:main.c        ****                 motor_turn(100,0,50);
 278              		.loc 1 156 0
 279 016e 6420     		movs	r0, #100
 280 0170 0021     		movs	r1, #0
 281 0172 3222     		movs	r2, #50
 282 0174 FFF7FEFF 		bl	motor_turn
 283              	.LVL38:
 284 0178 BCE7     		b	.L12
 285              	.L19:
 157:main.c        ****             }
 158:main.c        ****             
 159:main.c        ****             
 160:main.c        ****             else if(dig.l3==1 && dig.r3==1)
 286              		.loc 1 160 0
 287 017a BDF82820 		ldrh	r2, [sp, #40]
 288 017e 012A     		cmp	r2, #1
 289 0180 09D1     		bne	.L20
 290              		.loc 1 160 0 is_stmt 0 discriminator 1
ARM GAS  C:\Users\Joonas\AppData\Local\Temp\cc3lkpH6.s 			page 9


 291 0182 012B     		cmp	r3, #1
 292 0184 07D1     		bne	.L20
 161:main.c        ****             {
 162:main.c        ****                 printf("forward\n");
 293              		.loc 1 162 0 is_stmt 1
 294 0186 0E48     		ldr	r0, .L22+24
 295 0188 FFF7FEFF 		bl	puts
 296              	.LVL39:
 163:main.c        ****                 motor_forward(100,50);
 297              		.loc 1 163 0
 298 018c 6420     		movs	r0, #100
 299 018e 3221     		movs	r1, #50
 300 0190 FFF7FEFF 		bl	motor_forward
 301              	.LVL40:
 302 0194 AEE7     		b	.L12
 303              	.L20:
 164:main.c        ****             }
 165:main.c        ****             else
 166:main.c        ****             {
 167:main.c        ****                 printf("?!\n");
 304              		.loc 1 167 0
 305 0196 0B48     		ldr	r0, .L22+28
 306 0198 FFF7FEFF 		bl	puts
 307              	.LVL41:
 168:main.c        ****                 motor_backward(0,50);
 308              		.loc 1 168 0
 309 019c 0020     		movs	r0, #0
 310 019e 3221     		movs	r1, #50
 311 01a0 FFF7FEFF 		bl	motor_backward
 312              	.LVL42:
 313 01a4 A6E7     		b	.L12
 314              	.L23:
 315 01a6 00BF     		.align	2
 316              	.L22:
 317 01a8 00000000 		.word	.LC0
 318 01ac 00000000 		.word	sensor_isr_handler
 319 01b0 08000000 		.word	.LC1
 320 01b4 0C000000 		.word	.LC2
 321 01b8 1C000000 		.word	.LC3
 322 01bc 24000000 		.word	.LC4
 323 01c0 2C000000 		.word	.LC5
 324 01c4 34000000 		.word	.LC6
 325              		.cfi_endproc
 326              	.LFE63:
 327              		.size	main, .-main
 328              		.global	__aeabi_fmul
 329              		.global	__aeabi_f2d
 330              		.section	.text.checkBat,"ax",%progbits
 331              		.align	2
 332              		.global	checkBat
 333              		.thumb
 334              		.thumb_func
 335              		.type	checkBat, %function
 336              	checkBat:
 337              	.LFB64:
 169:main.c        ****             }
 170:main.c        ****             //CyDelay(500);
ARM GAS  C:\Users\Joonas\AppData\Local\Temp\cc3lkpH6.s 			page 10


 171:main.c        ****         }       
 172:main.c        ****     }
 173:main.c        ****         //CyDelay(1000);
 174:main.c        **** }
 175:main.c        ****     
 176:main.c        ****     
 177:main.c        **** //    for(;;)
 178:main.c        **** //    {
 179:main.c        **** //        if(SW1_Read()==0)
 180:main.c        **** //        {
 181:main.c        **** //            CyDelay(1000);
 182:main.c        **** //            
 183:main.c        **** //            motor_start();              // motor start
 184:main.c        **** //            
 185:main.c        **** //            
 186:main.c        **** //            
 187:main.c        **** //            motor_turn(102,98,4500);     // moving forward
 188:main.c        **** //            motor_turn(200,10,500);     // turn
 189:main.c        **** //            motor_turn(102,98,3200);
 190:main.c        **** //            motor_turn(200,10,500);
 191:main.c        **** //            motor_turn(102,98,3000);
 192:main.c        **** //            motor_turn(200,10,600);
 193:main.c        **** //            motor_turn(100,60,3400);
 194:main.c        **** //            motor_forward(200,200);
 195:main.c        **** //            //motor_turn(10,200,500);     // turn
 196:main.c        **** //               
 197:main.c        **** //            motor_stop();               // motor stop
 198:main.c        **** //        
 199:main.c        **** //        }
 200:main.c        **** //        
 201:main.c        **** //        if(delay==5)
 202:main.c        **** //        {
 203:main.c        **** //            while(checkBat()<4)
 204:main.c        **** //                {
 205:main.c        **** //                    //motor_stop();
 206:main.c        **** //                    BatteryLed_Write(1);
 207:main.c        **** //                    CyDelay(250);
 208:main.c        **** //                    BatteryLed_Write(0);
 209:main.c        **** //                    CyDelay(250); 
 210:main.c        **** //                    
 211:main.c        **** //                }
 212:main.c        **** //            delay=0;
 213:main.c        **** //        } 
 214:main.c        **** //        delay++;
 215:main.c        **** //        CyDelay(100);
 216:main.c        **** //        }
 217:main.c        ****     
 218:main.c        ****       for(;;)
 219:main.c        ****     {}
 220:main.c        **** }        
 221:main.c        **** 
 222:main.c        **** 
 223:main.c        **** 
 224:main.c        **** float checkBat()
 225:main.c        **** {
 338              		.loc 1 225 0
 339              		.cfi_startproc
ARM GAS  C:\Users\Joonas\AppData\Local\Temp\cc3lkpH6.s 			page 11


 340              		@ args = 0, pretend = 0, frame = 0
 341              		@ frame_needed = 0, uses_anonymous_args = 0
 342 0000 38B5     		push	{r3, r4, r5, lr}
 343              		.cfi_def_cfa_offset 16
 344              		.cfi_offset 3, -16
 345              		.cfi_offset 4, -12
 346              		.cfi_offset 5, -8
 347              		.cfi_offset 14, -4
 348              	.LVL43:
 226:main.c        ****     int16 adcresult =0;
 227:main.c        ****     float volts = 0.0;
 228:main.c        ****     ADC_Battery_StartConvert();
 349              		.loc 1 228 0
 350 0002 FFF7FEFF 		bl	ADC_Battery_StartConvert
 351              	.LVL44:
 229:main.c        ****     if(ADC_Battery_IsEndConversion(ADC_Battery_WAIT_FOR_RESULT)) 
 352              		.loc 1 229 0
 353 0006 0020     		movs	r0, #0
 354 0008 FFF7FEFF 		bl	ADC_Battery_IsEndConversion
 355              	.LVL45:
 356 000c 90B1     		cbz	r0, .L26
 230:main.c        ****     {   // wait for get ADC converted value
 231:main.c        ****         adcresult = ADC_Battery_GetResult16();
 357              		.loc 1 231 0
 358 000e FFF7FEFF 		bl	ADC_Battery_GetResult16
 359              	.LVL46:
 360 0012 0546     		mov	r5, r0
 361              	.LVL47:
 232:main.c        ****         volts = ADC_Battery_CountsTo_Volts(adcresult)*1.5;                  // convert value to Vol
 362              		.loc 1 232 0
 363 0014 FFF7FEFF 		bl	ADC_Battery_CountsTo_Volts
 364              	.LVL48:
 365 0018 4FF07F51 		mov	r1, #1069547520
 366 001c FFF7FEFF 		bl	__aeabi_fmul
 367              	.LVL49:
 368 0020 0446     		mov	r4, r0
 369              	.LVL50:
 233:main.c        ****     
 234:main.c        ****         // If you want to print value
 235:main.c        ****         printf("%d %f\r\n",adcresult, volts);
 370              		.loc 1 235 0
 371 0022 FFF7FEFF 		bl	__aeabi_f2d
 372              	.LVL51:
 373 0026 0246     		mov	r2, r0
 374 0028 0B46     		mov	r3, r1
 375 002a 0448     		ldr	r0, .L28
 376 002c 2946     		mov	r1, r5
 377 002e FFF7FEFF 		bl	printf
 378              	.LVL52:
 379 0032 00E0     		b	.L25
 380              	.LVL53:
 381              	.L26:
 227:main.c        ****     ADC_Battery_StartConvert();
 382              		.loc 1 227 0
 383 0034 0024     		movs	r4, #0
 384              	.LVL54:
 385              	.L25:
ARM GAS  C:\Users\Joonas\AppData\Local\Temp\cc3lkpH6.s 			page 12


 236:main.c        ****         
 237:main.c        ****     }
 238:main.c        ****     return(volts);
 239:main.c        **** }
 386              		.loc 1 239 0
 387 0036 2046     		mov	r0, r4
 388 0038 38BD     		pop	{r3, r4, r5, pc}
 389              	.LVL55:
 390              	.L29:
 391 003a 00BF     		.align	2
 392              	.L28:
 393 003c 38000000 		.word	.LC7
 394              		.cfi_endproc
 395              	.LFE64:
 396              		.size	checkBat, .-checkBat
 397              		.section	.text._write,"ax",%progbits
 398              		.align	2
 399              		.global	_write
 400              		.thumb
 401              		.thumb_func
 402              		.type	_write, %function
 403              	_write:
 404              	.LFB65:
 240:main.c        **** 
 241:main.c        **** 
 242:main.c        **** //*/
 243:main.c        **** 
 244:main.c        **** 
 245:main.c        **** /*//ultra sonic sensor//
 246:main.c        **** int main()
 247:main.c        **** {
 248:main.c        ****     CyGlobalIntEnable; 
 249:main.c        ****     UART_1_Start();
 250:main.c        ****     Ultra_Start();                          // Ultra Sonic Start function
 251:main.c        ****     while(1) {
 252:main.c        ****         //If you want to print out the value  
 253:main.c        ****         printf("distance = %5.0f\r\n", Ultra_GetDistance());
 254:main.c        ****         CyDelay(1000);
 255:main.c        ****     }
 256:main.c        **** }   
 257:main.c        **** //*/
 258:main.c        **** 
 259:main.c        **** 
 260:main.c        **** /*//nunchuk//
 261:main.c        **** int main()
 262:main.c        **** {
 263:main.c        ****     CyGlobalIntEnable; 
 264:main.c        ****     UART_1_Start();
 265:main.c        ****   
 266:main.c        ****     nunchuk_start();
 267:main.c        ****     nunchuk_init();
 268:main.c        ****     
 269:main.c        ****     for(;;)
 270:main.c        ****     {    
 271:main.c        ****         nunchuk_read();
 272:main.c        ****     }
 273:main.c        **** }   
ARM GAS  C:\Users\Joonas\AppData\Local\Temp\cc3lkpH6.s 			page 13


 274:main.c        **** //*/
 275:main.c        **** 
 276:main.c        **** 
 277:main.c        **** /*//IR receiver//
 278:main.c        **** int main()
 279:main.c        **** {
 280:main.c        ****     CyGlobalIntEnable; 
 281:main.c        ****     UART_1_Start();
 282:main.c        ****     
 283:main.c        ****     unsigned int IR_val; 
 284:main.c        ****     
 285:main.c        ****     for(;;)
 286:main.c        ****     {
 287:main.c        ****        IR_val = get_IR();
 288:main.c        ****        printf("%x\r\n\n",IR_val);
 289:main.c        ****     }    
 290:main.c        ****  }   
 291:main.c        **** //*/
 292:main.c        **** 
 293:main.c        **** 
 294:main.c        **** /*//Ambient light sensor//
 295:main.c        **** int main()
 296:main.c        **** {
 297:main.c        ****     CyGlobalIntEnable; 
 298:main.c        ****     UART_1_Start();
 299:main.c        ****     
 300:main.c        ****     I2C_Start();
 301:main.c        ****     
 302:main.c        ****     I2C_write(0x29,0x80,0x00);          // set to power down
 303:main.c        ****     I2C_write(0x29,0x80,0x03);          // set to power on
 304:main.c        ****     
 305:main.c        ****     for(;;)
 306:main.c        ****     {    
 307:main.c        ****         uint8 Data0Low,Data0High,Data1Low,Data1High;
 308:main.c        ****         Data0Low = I2C_read(0x29,CH0_L);
 309:main.c        ****         Data0High = I2C_read(0x29,CH0_H);
 310:main.c        ****         Data1Low = I2C_read(0x29,CH1_L);
 311:main.c        ****         Data1High = I2C_read(0x29,CH1_H);
 312:main.c        ****         
 313:main.c        ****         uint8 CH0, CH1;
 314:main.c        ****         CH0 = convert_raw(Data0Low,Data0High);      // combine Data0
 315:main.c        ****         CH1 = convert_raw(Data1Low,Data1High);      // combine Data1
 316:main.c        **** 
 317:main.c        ****         double Ch0 = CH0;
 318:main.c        ****         double Ch1 = CH1;
 319:main.c        ****         
 320:main.c        ****         double data = 0;
 321:main.c        ****         data = getLux(Ch0,Ch1);
 322:main.c        ****         
 323:main.c        ****         // If you want to print out data
 324:main.c        ****         //printf("%lf\r\n",data);    
 325:main.c        ****     }    
 326:main.c        ****  }   
 327:main.c        **** //*/
 328:main.c        **** 
 329:main.c        **** 
 330:main.c        **** /*//accelerometer//
ARM GAS  C:\Users\Joonas\AppData\Local\Temp\cc3lkpH6.s 			page 14


 331:main.c        **** int main()
 332:main.c        **** {
 333:main.c        ****     CyGlobalIntEnable; 
 334:main.c        ****     UART_1_Start();
 335:main.c        ****   
 336:main.c        ****     I2C_Start();
 337:main.c        ****   
 338:main.c        ****     uint8 X_L_A, X_H_A, Y_L_A, Y_H_A, Z_L_A, Z_H_A;
 339:main.c        ****     int16 X_AXIS_A, Y_AXIS_A, Z_AXIS_A;
 340:main.c        ****     
 341:main.c        ****     I2C_write(ACCEL_MAG_ADDR, ACCEL_CTRL1_REG, 0x37);           // set accelerometer & magnetometer
 342:main.c        ****     I2C_write(ACCEL_MAG_ADDR, ACCEL_CTRL7_REG, 0x22);
 343:main.c        ****     
 344:main.c        ****     
 345:main.c        ****     for(;;)
 346:main.c        ****     {
 347:main.c        ****         //print out accelerometer output
 348:main.c        ****         X_L_A = I2C_read(ACCEL_MAG_ADDR, OUT_X_L_A);
 349:main.c        ****         X_H_A = I2C_read(ACCEL_MAG_ADDR, OUT_X_H_A);
 350:main.c        ****         X_AXIS_A = convert_raw(X_L_A, X_H_A);
 351:main.c        ****         
 352:main.c        ****         Y_L_A = I2C_read(ACCEL_MAG_ADDR, OUT_Y_L_A);
 353:main.c        ****         Y_H_A = I2C_read(ACCEL_MAG_ADDR, OUT_Y_H_A);
 354:main.c        ****         Y_AXIS_A = convert_raw(Y_L_A, Y_H_A);
 355:main.c        ****         
 356:main.c        ****         Z_L_A = I2C_read(ACCEL_MAG_ADDR, OUT_Z_L_A);
 357:main.c        ****         Z_H_A = I2C_read(ACCEL_MAG_ADDR, OUT_Z_H_A);
 358:main.c        ****         Z_AXIS_A = convert_raw(Z_L_A, Z_H_A);
 359:main.c        ****         
 360:main.c        ****         printf("ACCEL: %d %d %d %d %d %d \r\n", X_L_A, X_H_A, Y_L_A, Y_H_A, Z_L_A, Z_H_A);
 361:main.c        ****         value_convert_accel(X_AXIS_A, Y_AXIS_A, Z_AXIS_A);
 362:main.c        ****         printf("\n");
 363:main.c        ****         
 364:main.c        ****         CyDelay(50);
 365:main.c        ****     }
 366:main.c        **** }   
 367:main.c        **** //*/
 368:main.c        **** 
 369:main.c        **** 
 370:main.c        **** /*//reflectance//
 371:main.c        **** int main()
 372:main.c        **** {
 373:main.c        ****     struct sensors_ ref;
 374:main.c        ****     struct sensors_ dig;
 375:main.c        ****     CyGlobalIntEnable; 
 376:main.c        ****     UART_1_Start();
 377:main.c        ****   
 378:main.c        ****     sensor_isr_StartEx(sensor_isr_handler);
 379:main.c        ****     
 380:main.c        ****     reflectance_start();
 381:main.c        **** 
 382:main.c        ****     IR_led_Write(1);
 383:main.c        ****     for(;;)
 384:main.c        ****     {
 385:main.c        ****         reflectance_read(&ref);
 386:main.c        ****         printf("%d %d %d %d \r\n", ref.l3, ref.l1, ref.r1, ref.r3);       //print out each period o
 387:main.c        ****         reflectance_digital(&dig);      //print out 0 or 1 according to results of reflectance peri
ARM GAS  C:\Users\Joonas\AppData\Local\Temp\cc3lkpH6.s 			page 15


 388:main.c        ****         printf("%d %d %d %d \r\n", dig.l3, dig.l1, dig.r1, dig.r3);        //print out 0 or 1 accor
 389:main.c        ****         
 390:main.c        ****         CyDelay(500);
 391:main.c        ****     }
 392:main.c        **** }   
 393:main.c        **** //*/
 394:main.c        **** 
 395:main.c        ****  /* //motor//
 396:main.c        **** int main()
 397:main.c        **** {
 398:main.c        ****     CyGlobalIntEnable; 
 399:main.c        ****     UART_1_Start();
 400:main.c        **** 
 401:main.c        **** 
 402:main.c        **** }
 403:main.c        **** //*/
 404:main.c        ****     
 405:main.c        **** 
 406:main.c        **** /*//gyroscope//
 407:main.c        **** int main()
 408:main.c        **** {
 409:main.c        ****     CyGlobalIntEnable; 
 410:main.c        ****     UART_1_Start();
 411:main.c        ****   
 412:main.c        ****     I2C_Start();
 413:main.c        ****   
 414:main.c        ****     uint8 X_L_G, X_H_G, Y_L_G, Y_H_G, Z_L_G, Z_H_G;
 415:main.c        ****     int16 X_AXIS_G, Y_AXIS_G, Z_AXIS_G;
 416:main.c        ****     
 417:main.c        ****     I2C_write(GYRO_ADDR, GYRO_CTRL1_REG, 0x0F);             // set gyroscope into active mode
 418:main.c        ****     I2C_write(GYRO_ADDR, GYRO_CTRL4_REG, 0x30);             // set full scale selection to 2000dps 
 419:main.c        ****     
 420:main.c        ****     for(;;)
 421:main.c        ****     {
 422:main.c        ****         //print out gyroscope output
 423:main.c        ****         X_L_G = I2C_read(GYRO_ADDR, OUT_X_AXIS_L);
 424:main.c        ****         X_H_G = I2C_read(GYRO_ADDR, OUT_X_AXIS_H);
 425:main.c        ****         X_AXIS_G = convert_raw(X_H_G, X_L_G);
 426:main.c        ****         
 427:main.c        ****         
 428:main.c        ****         Y_L_G = I2C_read(GYRO_ADDR, OUT_Y_AXIS_L);
 429:main.c        ****         Y_H_G = I2C_read(GYRO_ADDR, OUT_Y_AXIS_H);
 430:main.c        ****         Y_AXIS_G = convert_raw(Y_H_G, Y_L_G);
 431:main.c        ****         
 432:main.c        ****         
 433:main.c        ****         Z_L_G = I2C_read(GYRO_ADDR, OUT_Z_AXIS_L);
 434:main.c        ****         Z_H_G = I2C_read(GYRO_ADDR, OUT_Z_AXIS_H);
 435:main.c        ****         Z_AXIS_G = convert_raw(Z_H_G, Z_L_G);
 436:main.c        ****      
 437:main.c        ****         // If you want to print value
 438:main.c        ****         printf("%d %d %d \r\n", X_AXIS_G, Y_AXIS_G, Z_AXIS_G);
 439:main.c        ****         CyDelay(50);
 440:main.c        ****     }
 441:main.c        **** }   
 442:main.c        **** //*/
 443:main.c        **** 
 444:main.c        **** 
ARM GAS  C:\Users\Joonas\AppData\Local\Temp\cc3lkpH6.s 			page 16


 445:main.c        **** /*//magnetometer//
 446:main.c        **** int main()
 447:main.c        **** {
 448:main.c        ****     CyGlobalIntEnable; 
 449:main.c        ****     UART_1_Start();
 450:main.c        ****   
 451:main.c        ****     I2C_Start();
 452:main.c        ****    
 453:main.c        ****     uint8 X_L_M, X_H_M, Y_L_M, Y_H_M, Z_L_M, Z_H_M;
 454:main.c        ****     int16 X_AXIS, Y_AXIS, Z_AXIS;
 455:main.c        ****     
 456:main.c        ****     I2C_write(GYRO_ADDR, GYRO_CTRL1_REG, 0x0F);             // set gyroscope into active mode
 457:main.c        ****     I2C_write(GYRO_ADDR, GYRO_CTRL4_REG, 0x30);             // set full scale selection to 2000dps
 458:main.c        ****     I2C_write(ACCEL_MAG_ADDR, ACCEL_CTRL1_REG, 0x37);           // set accelerometer & magnetometer
 459:main.c        ****     I2C_write(ACCEL_MAG_ADDR, ACCEL_CTRL7_REG, 0x22);
 460:main.c        ****     
 461:main.c        ****     
 462:main.c        ****     for(;;)
 463:main.c        ****     {
 464:main.c        ****         X_L_M = I2C_read(ACCEL_MAG_ADDR, OUT_X_L_M);
 465:main.c        ****         X_H_M = I2C_read(ACCEL_MAG_ADDR, OUT_X_H_M);
 466:main.c        ****         X_AXIS = convert_raw(X_L_M, X_H_M);
 467:main.c        ****         
 468:main.c        ****         Y_L_M = I2C_read(ACCEL_MAG_ADDR, OUT_Y_L_M);
 469:main.c        ****         Y_H_M = I2C_read(ACCEL_MAG_ADDR, OUT_Y_H_M);
 470:main.c        ****         Y_AXIS = convert_raw(Y_L_M, Y_H_M);
 471:main.c        ****         
 472:main.c        ****         Z_L_M = I2C_read(ACCEL_MAG_ADDR, OUT_Z_L_M);
 473:main.c        ****         Z_H_M = I2C_read(ACCEL_MAG_ADDR, OUT_Z_H_M);
 474:main.c        ****         Z_AXIS = convert_raw(Z_L_M, Z_H_M);
 475:main.c        ****         
 476:main.c        ****         heading(X_AXIS, Y_AXIS);
 477:main.c        ****         printf("MAGNET: %d %d %d %d %d %d \r\n", X_L_M, X_H_M, Y_L_M, Y_H_M, Z_L_M, Z_H_M);
 478:main.c        ****         printf("%d %d %d \r\n", X_AXIS,Y_AXIS, Z_AXIS);
 479:main.c        ****         CyDelay(50);      
 480:main.c        ****     }
 481:main.c        **** }   
 482:main.c        **** //*/
 483:main.c        **** 
 484:main.c        **** 
 485:main.c        **** #if 0
 486:main.c        **** int rread(void)
 487:main.c        **** {
 488:main.c        ****     SC0_SetDriveMode(PIN_DM_STRONG);
 489:main.c        ****     SC0_Write(1);
 490:main.c        ****     CyDelayUs(10);
 491:main.c        ****     SC0_SetDriveMode(PIN_DM_DIG_HIZ);
 492:main.c        ****     Timer_1_Start();
 493:main.c        ****     uint16_t start = Timer_1_ReadCounter();
 494:main.c        ****     uint16_t end = 0;
 495:main.c        ****     while(!(Timer_1_ReadStatusRegister() & Timer_1_STATUS_TC)) {
 496:main.c        ****         if(SC0_Read() == 0 && end == 0) {
 497:main.c        ****             end = Timer_1_ReadCounter();
 498:main.c        ****         }
 499:main.c        ****     }
 500:main.c        ****     Timer_1_Stop();
 501:main.c        ****     
ARM GAS  C:\Users\Joonas\AppData\Local\Temp\cc3lkpH6.s 			page 17


 502:main.c        ****     return (start - end);
 503:main.c        **** }
 504:main.c        **** #endif
 505:main.c        **** 
 506:main.c        **** /* Don't remove the functions below */
 507:main.c        **** int _write(int file, char *ptr, int len)
 508:main.c        **** {
 405              		.loc 1 508 0
 406              		.cfi_startproc
 407              		@ args = 0, pretend = 0, frame = 0
 408              		@ frame_needed = 0, uses_anonymous_args = 0
 409              	.LVL56:
 410 0000 F8B5     		push	{r3, r4, r5, r6, r7, lr}
 411              		.cfi_def_cfa_offset 24
 412              		.cfi_offset 3, -24
 413              		.cfi_offset 4, -20
 414              		.cfi_offset 5, -16
 415              		.cfi_offset 6, -12
 416              		.cfi_offset 7, -8
 417              		.cfi_offset 14, -4
 418 0002 0C46     		mov	r4, r1
 419 0004 1746     		mov	r7, r2
 420              	.LVL57:
 509:main.c        ****     (void)file; /* Parameter is not used, suppress unused argument warning */
 510:main.c        **** 	int n;
 511:main.c        **** 	for(n = 0; n < len; n++) {
 421              		.loc 1 511 0
 422 0006 0025     		movs	r5, #0
 423 0008 0BE0     		b	.L31
 424              	.LVL58:
 425              	.L33:
 512:main.c        ****         if(*ptr == '\n') UART_1_PutChar('\r');
 426              		.loc 1 512 0
 427 000a 2378     		ldrb	r3, [r4]	@ zero_extendqisi2
 428 000c 0A2B     		cmp	r3, #10
 429 000e 02D1     		bne	.L32
 430              		.loc 1 512 0 is_stmt 0 discriminator 1
 431 0010 0D20     		movs	r0, #13
 432 0012 FFF7FEFF 		bl	UART_1_PutChar
 433              	.LVL59:
 434              	.L32:
 513:main.c        **** 		UART_1_PutChar(*ptr++);
 435              		.loc 1 513 0 is_stmt 1 discriminator 2
 436 0016 661C     		adds	r6, r4, #1
 437              	.LVL60:
 438 0018 2078     		ldrb	r0, [r4]	@ zero_extendqisi2
 439 001a FFF7FEFF 		bl	UART_1_PutChar
 440              	.LVL61:
 511:main.c        ****         if(*ptr == '\n') UART_1_PutChar('\r');
 441              		.loc 1 511 0 discriminator 2
 442 001e 0135     		adds	r5, r5, #1
 443              	.LVL62:
 444              		.loc 1 513 0 discriminator 2
 445 0020 3446     		mov	r4, r6
 446              	.LVL63:
 447              	.L31:
 511:main.c        ****         if(*ptr == '\n') UART_1_PutChar('\r');
ARM GAS  C:\Users\Joonas\AppData\Local\Temp\cc3lkpH6.s 			page 18


 448              		.loc 1 511 0 discriminator 1
 449 0022 BD42     		cmp	r5, r7
 450 0024 F1DB     		blt	.L33
 514:main.c        **** 	}
 515:main.c        **** 	return len;
 516:main.c        **** }
 451              		.loc 1 516 0
 452 0026 3846     		mov	r0, r7
 453 0028 F8BD     		pop	{r3, r4, r5, r6, r7, pc}
 454              		.cfi_endproc
 455              	.LFE65:
 456              		.size	_write, .-_write
 457 002a 00BF     		.section	.text._read,"ax",%progbits
 458              		.align	2
 459              		.global	_read
 460              		.thumb
 461              		.thumb_func
 462              		.type	_read, %function
 463              	_read:
 464              	.LFB66:
 517:main.c        **** 
 518:main.c        **** int _read (int file, char *ptr, int count)
 519:main.c        **** {
 465              		.loc 1 519 0
 466              		.cfi_startproc
 467              		@ args = 0, pretend = 0, frame = 0
 468              		@ frame_needed = 0, uses_anonymous_args = 0
 469              	.LVL64:
 470 0000 F8B5     		push	{r3, r4, r5, r6, r7, lr}
 471              		.cfi_def_cfa_offset 24
 472              		.cfi_offset 3, -24
 473              		.cfi_offset 4, -20
 474              		.cfi_offset 5, -16
 475              		.cfi_offset 6, -12
 476              		.cfi_offset 7, -8
 477              		.cfi_offset 14, -4
 478 0002 0F46     		mov	r7, r1
 479 0004 1446     		mov	r4, r2
 480              	.LVL65:
 520:main.c        ****     int chs = 0;
 481              		.loc 1 520 0
 482 0006 0026     		movs	r6, #0
 521:main.c        ****     char ch;
 522:main.c        ****  
 523:main.c        ****     (void)file; /* Parameter is not used, suppress unused argument warning */
 524:main.c        ****     while(count > 0) {
 483              		.loc 1 524 0
 484 0008 12E0     		b	.L37
 485              	.LVL66:
 486              	.L40:
 525:main.c        ****         ch = UART_1_GetChar();
 487              		.loc 1 525 0
 488 000a FFF7FEFF 		bl	UART_1_GetChar
 489              	.LVL67:
 526:main.c        ****         if(ch != 0) {
 490              		.loc 1 526 0
 491 000e 0546     		mov	r5, r0
ARM GAS  C:\Users\Joonas\AppData\Local\Temp\cc3lkpH6.s 			page 19


 492 0010 70B1     		cbz	r0, .L37
 527:main.c        ****             UART_1_PutChar(ch);
 493              		.loc 1 527 0
 494 0012 FFF7FEFF 		bl	UART_1_PutChar
 495              	.LVL68:
 528:main.c        ****             chs++;
 496              		.loc 1 528 0
 497 0016 0136     		adds	r6, r6, #1
 498              	.LVL69:
 529:main.c        ****             if(ch == '\r') {
 499              		.loc 1 529 0
 500 0018 0D2D     		cmp	r5, #13
 501 001a 03D1     		bne	.L38
 502              	.LVL70:
 530:main.c        ****                 ch = '\n';
 531:main.c        ****                 UART_1_PutChar(ch);
 503              		.loc 1 531 0
 504 001c 0A20     		movs	r0, #10
 505 001e FFF7FEFF 		bl	UART_1_PutChar
 506              	.LVL71:
 530:main.c        ****                 ch = '\n';
 507              		.loc 1 530 0
 508 0022 0A25     		movs	r5, #10
 509              	.LVL72:
 510              	.L38:
 532:main.c        ****             }
 533:main.c        ****             *ptr++ = ch;
 511              		.loc 1 533 0
 512 0024 7B1C     		adds	r3, r7, #1
 513              	.LVL73:
 514 0026 3D70     		strb	r5, [r7]
 534:main.c        ****             count--;
 515              		.loc 1 534 0
 516 0028 013C     		subs	r4, r4, #1
 517              	.LVL74:
 535:main.c        ****             if(ch == '\n') break;
 518              		.loc 1 535 0
 519 002a 0A2D     		cmp	r5, #10
 520 002c 02D0     		beq	.L39
 533:main.c        ****             count--;
 521              		.loc 1 533 0
 522 002e 1F46     		mov	r7, r3
 523              	.LVL75:
 524              	.L37:
 524:main.c        ****         ch = UART_1_GetChar();
 525              		.loc 1 524 0
 526 0030 002C     		cmp	r4, #0
 527 0032 EADC     		bgt	.L40
 528              	.LVL76:
 529              	.L39:
 536:main.c        ****         }
 537:main.c        ****     }
 538:main.c        ****     return chs;
 539:main.c        **** }
 530              		.loc 1 539 0
 531 0034 3046     		mov	r0, r6
 532 0036 F8BD     		pop	{r3, r4, r5, r6, r7, pc}
ARM GAS  C:\Users\Joonas\AppData\Local\Temp\cc3lkpH6.s 			page 20


 533              		.cfi_endproc
 534              	.LFE66:
 535              		.size	_read, .-_read
 536              		.section	.rodata.str1.4,"aMS",%progbits,1
 537              		.align	2
 538              	.LC0:
 539 0000 0A426F6F 		.ascii	"\012Boot\000"
 539      7400
 540 0006 0000     		.space	2
 541              	.LC1:
 542 0008 25642000 		.ascii	"%d \000"
 543              	.LC2:
 544 000c 25642025 		.ascii	"%d %d %d %d \015\012\000"
 544      64202564 
 544      20256420 
 544      0D0A00
 545 001b 00       		.space	1
 546              	.LC3:
 547 001c 6C656674 		.ascii	"left\000"
 547      00
 548 0021 000000   		.space	3
 549              	.LC4:
 550 0024 72696768 		.ascii	"right\000"
 550      7400
 551 002a 0000     		.space	2
 552              	.LC5:
 553 002c 666F7277 		.ascii	"forward\000"
 553      61726400 
 554              	.LC6:
 555 0034 3F2100   		.ascii	"?!\000"
 556 0037 00       		.space	1
 557              	.LC7:
 558 0038 25642025 		.ascii	"%d %f\015\012\000"
 558      660D0A00 
 559              		.text
 560              	.Letext0:
 561              		.file 2 "c:\\program files (x86)\\cypress\\psoc creator\\4.0\\psoc creator\\import\\gnu\\arm\\4.9.
 562              		.file 3 "c:\\program files (x86)\\cypress\\psoc creator\\4.0\\psoc creator\\import\\gnu\\arm\\4.9.
 563              		.file 4 "Generated_Source\\PSoC5/cytypes.h"
 564              		.file 5 ".\\ZumoLibrary/Reflectance.h"
 565              		.file 6 "Generated_Source\\PSoC5/UART_1.h"
 566              		.file 7 "Generated_Source\\PSoC5/ADC_Battery.h"
 567              		.file 8 "Generated_Source\\PSoC5/BatteryLed.h"
 568              		.file 9 "Generated_Source\\PSoC5/sensor_isr.h"
 569              		.file 10 "Generated_Source\\PSoC5/IR_led.h"
 570              		.file 11 "Generated_Source\\PSoC5/CyLib.h"
 571              		.file 12 "<built-in>"
 572              		.file 13 ".\\ZumoLibrary/Motor.h"
 573              		.file 14 "c:\\program files (x86)\\cypress\\psoc creator\\4.0\\psoc creator\\import\\gnu\\arm\\4.9
 574              		.file 15 "Generated_Source\\PSoC5/SW1.h"
 575              		.file 16 "Generated_Source\\PSoC5/core_cm3.h"