ARM GAS  C:\Users\allu9\AppData\Local\Temp\ccNwnQ2h.s 			page 1


   1              		.syntax unified
   2              		.cpu cortex-m3
   3              		.fpu softvfp
   4              		.eabi_attribute 20, 1
   5              		.eabi_attribute 21, 1
   6              		.eabi_attribute 23, 3
   7              		.eabi_attribute 24, 1
   8              		.eabi_attribute 25, 1
   9              		.eabi_attribute 26, 1
  10              		.eabi_attribute 30, 1
  11              		.eabi_attribute 34, 1
  12              		.eabi_attribute 18, 4
  13              		.thumb
  14              		.syntax unified
  15              		.file	"Drive.c"
  16              		.text
  17              	.Ltext0:
  18              		.cfi_sections	.debug_frame
  19              		.global	__aeabi_i2f
  20              		.global	__aeabi_fdiv
  21              		.global	__aeabi_fmul
  22              		.global	__aeabi_f2d
  23              		.global	__aeabi_dmul
  24              		.global	__aeabi_d2iz
  25              		.global	__aeabi_ddiv
  26              		.global	__aeabi_dcmpgt
  27              		.global	__aeabi_fcmpgt
  28              		.global	__aeabi_fcmplt
  29              		.section	.text.Drive,"ax",%progbits
  30              		.align	2
  31              		.global	Drive
  32              		.thumb
  33              		.thumb_func
  34              		.type	Drive, %function
  35              	Drive:
  36              	.LFB63:
  37              		.file 1 "Drive.c"
   1:Drive.c       **** /**
   2:Drive.c       ****  * @file    Drive.c
   3:Drive.c       ****  * @brief   ASDF Written by me AKA VE's
   4:Drive.c       ****  * @details included in Zumo shield
   5:Drive.c       **** */
   6:Drive.c       **** #include "Drive.h"
   7:Drive.c       **** #include "Motor.h"
   8:Drive.c       **** #include "Reflectance.h"
   9:Drive.c       **** int dir;
  10:Drive.c       **** 
  11:Drive.c       **** int max=255;
  12:Drive.c       **** double mKorjaus=1.0f; //<1
  13:Drive.c       **** double korjaus=1.0f;
  14:Drive.c       **** int laskuRaja=75;  //0-255
  15:Drive.c       **** 
  16:Drive.c       **** int sharp; 
  17:Drive.c       **** int fuckup;
  18:Drive.c       **** 
  19:Drive.c       **** void Drive (int l3, int l1, int r1, int r3, int lVal, int rVal)
  20:Drive.c       **** {
ARM GAS  C:\Users\allu9\AppData\Local\Temp\ccNwnQ2h.s 			page 2


  38              		.loc 1 20 0
  39              		.cfi_startproc
  40              		@ args = 8, pretend = 0, frame = 0
  41              		@ frame_needed = 0, uses_anonymous_args = 0
  42              	.LVL0:
  43 0000 2DE9F041 		push	{r4, r5, r6, r7, r8, lr}
  44              		.cfi_def_cfa_offset 24
  45              		.cfi_offset 4, -24
  46              		.cfi_offset 5, -20
  47              		.cfi_offset 6, -16
  48              		.cfi_offset 7, -12
  49              		.cfi_offset 8, -8
  50              		.cfi_offset 14, -4
  51 0004 82B0     		sub	sp, sp, #8
  52              		.cfi_def_cfa_offset 32
  53 0006 0C46     		mov	r4, r1
  54 0008 089E     		ldr	r6, [sp, #32]
  55 000a 0998     		ldr	r0, [sp, #36]
  56              	.LVL1:
  21:Drive.c       **** 
  22:Drive.c       ****     if(l1<1000)
  57              		.loc 1 22 0
  58 000c B1F57A7F 		cmp	r1, #1000
  59 0010 00DA     		bge	.L2
  23:Drive.c       ****     {
  24:Drive.c       ****         l1=lVal;
  60              		.loc 1 24 0
  61 0012 3446     		mov	r4, r6
  62              	.L2:
  63              	.LVL2:
  25:Drive.c       ****     }
  26:Drive.c       ****     if(r1<1000)
  64              		.loc 1 26 0
  65 0014 B2F57A7F 		cmp	r2, #1000
  66 0018 00DA     		bge	.L3
  27:Drive.c       ****     {
  28:Drive.c       ****         r1=rVal;   
  67              		.loc 1 28 0
  68 001a 0246     		mov	r2, r0
  69              	.LVL3:
  70              	.L3:
  29:Drive.c       ****     }
  30:Drive.c       ****     
  31:Drive.c       ****     float leftR=(float)(r1-rVal)/(l1-lVal);
  71              		.loc 1 31 0
  72 001c 101A     		subs	r0, r2, r0
  73 001e FFF7FEFF 		bl	__aeabi_i2f
  74              	.LVL4:
  75 0022 0546     		mov	r5, r0
  76 0024 A01B     		subs	r0, r4, r6
  77 0026 FFF7FEFF 		bl	__aeabi_i2f
  78              	.LVL5:
  79 002a 0446     		mov	r4, r0
  80              	.LVL6:
  81 002c 0146     		mov	r1, r0
  82 002e 2846     		mov	r0, r5
  83 0030 FFF7FEFF 		bl	__aeabi_fdiv
ARM GAS  C:\Users\allu9\AppData\Local\Temp\ccNwnQ2h.s 			page 3


  84              	.LVL7:
  85 0034 8046     		mov	r8, r0
  86              	.LVL8:
  32:Drive.c       ****     float rightR= (float)(l1-lVal)/(r1-rVal);
  87              		.loc 1 32 0
  88 0036 2946     		mov	r1, r5
  89 0038 2046     		mov	r0, r4
  90              	.LVL9:
  91 003a FFF7FEFF 		bl	__aeabi_fdiv
  92              	.LVL10:
  93 003e 0746     		mov	r7, r0
  94              	.LVL11:
  33:Drive.c       ****     
  34:Drive.c       ****     int leftM=(float)leftR*max*mKorjaus;
  95              		.loc 1 34 0
  96 0040 554C     		ldr	r4, .L19+8
  97 0042 2068     		ldr	r0, [r4]
  98              	.LVL12:
  99 0044 FFF7FEFF 		bl	__aeabi_i2f
 100              	.LVL13:
 101 0048 0646     		mov	r6, r0
 102 004a 0146     		mov	r1, r0
 103 004c 4046     		mov	r0, r8
 104 004e FFF7FEFF 		bl	__aeabi_fmul
 105              	.LVL14:
 106 0052 04F10805 		add	r5, r4, #8
 107 0056 D5E90045 		ldrd	r4, [r5]
 108 005a FFF7FEFF 		bl	__aeabi_f2d
 109              	.LVL15:
 110 005e 2246     		mov	r2, r4
 111 0060 2B46     		mov	r3, r5
 112 0062 FFF7FEFF 		bl	__aeabi_dmul
 113              	.LVL16:
 114 0066 FFF7FEFF 		bl	__aeabi_d2iz
 115              	.LVL17:
 116 006a 8046     		mov	r8, r0
 117              	.LVL18:
  35:Drive.c       ****     int righhM=(float)rightR*max*mKorjaus;
 118              		.loc 1 35 0
 119 006c 3146     		mov	r1, r6
 120 006e 3846     		mov	r0, r7
 121              	.LVL19:
 122 0070 FFF7FEFF 		bl	__aeabi_fmul
 123              	.LVL20:
 124 0074 FFF7FEFF 		bl	__aeabi_f2d
 125              	.LVL21:
 126 0078 2246     		mov	r2, r4
 127 007a 2B46     		mov	r3, r5
 128 007c FFF7FEFF 		bl	__aeabi_dmul
 129              	.LVL22:
 130 0080 FFF7FEFF 		bl	__aeabi_d2iz
 131              	.LVL23:
 132 0084 0746     		mov	r7, r0
 133              	.LVL24:
  36:Drive.c       ****     
  37:Drive.c       ****     if((float)(leftM+righhM)/max/mKorjaus/2>0.80)
 134              		.loc 1 37 0
ARM GAS  C:\Users\allu9\AppData\Local\Temp\ccNwnQ2h.s 			page 4


 135 0086 4044     		add	r0, r8, r0
 136              	.LVL25:
 137 0088 FFF7FEFF 		bl	__aeabi_i2f
 138              	.LVL26:
 139 008c 3146     		mov	r1, r6
 140 008e FFF7FEFF 		bl	__aeabi_fdiv
 141              	.LVL27:
 142 0092 FFF7FEFF 		bl	__aeabi_f2d
 143              	.LVL28:
 144 0096 2246     		mov	r2, r4
 145 0098 2B46     		mov	r3, r5
 146 009a FFF7FEFF 		bl	__aeabi_ddiv
 147              	.LVL29:
 148 009e 0022     		movs	r2, #0
 149 00a0 3E4B     		ldr	r3, .L19+12
 150 00a2 FFF7FEFF 		bl	__aeabi_dmul
 151              	.LVL30:
 152 00a6 3AA3     		adr	r3, .L19
 153 00a8 D3E90023 		ldrd	r2, [r3]
 154 00ac FFF7FEFF 		bl	__aeabi_dcmpgt
 155              	.LVL31:
 156 00b0 38B1     		cbz	r0, .L4
  38:Drive.c       ****     {
  39:Drive.c       ****         BatteryLed_Write(1);
 157              		.loc 1 39 0
 158 00b2 0120     		movs	r0, #1
 159 00b4 FFF7FEFF 		bl	BatteryLed_Write
 160              	.LVL32:
  40:Drive.c       ****         motor_forward(max,1);
 161              		.loc 1 40 0
 162 00b8 0121     		movs	r1, #1
 163 00ba 374B     		ldr	r3, .L19+8
 164 00bc 1878     		ldrb	r0, [r3]	@ zero_extendqisi2
 165 00be FFF7FEFF 		bl	motor_forward
 166              	.LVL33:
 167              	.L4:
  41:Drive.c       ****     }
  42:Drive.c       ****     
  43:Drive.c       ****     if ((float)righhM>laskuRaja&&(float)leftM>laskuRaja)
 168              		.loc 1 43 0
 169 00c2 3846     		mov	r0, r7
 170 00c4 FFF7FEFF 		bl	__aeabi_i2f
 171              	.LVL34:
 172 00c8 0546     		mov	r5, r0
 173 00ca 334B     		ldr	r3, .L19+8
 174 00cc 1869     		ldr	r0, [r3, #16]
 175 00ce FFF7FEFF 		bl	__aeabi_i2f
 176              	.LVL35:
 177 00d2 0446     		mov	r4, r0
 178 00d4 0146     		mov	r1, r0
 179 00d6 2846     		mov	r0, r5
 180 00d8 FFF7FEFF 		bl	__aeabi_fcmpgt
 181              	.LVL36:
 182 00dc 38B3     		cbz	r0, .L6
 183              		.loc 1 43 0 is_stmt 0 discriminator 1
 184 00de 4046     		mov	r0, r8
 185 00e0 FFF7FEFF 		bl	__aeabi_i2f
ARM GAS  C:\Users\allu9\AppData\Local\Temp\ccNwnQ2h.s 			page 5


 186              	.LVL37:
 187 00e4 0146     		mov	r1, r0
 188 00e6 2046     		mov	r0, r4
 189 00e8 FFF7FEFF 		bl	__aeabi_fcmplt
 190              	.LVL38:
 191 00ec F8B1     		cbz	r0, .L6
  44:Drive.c       ****     {
  45:Drive.c       ****         BatteryLed_Write(0);
 192              		.loc 1 45 0 is_stmt 1
 193 00ee 0020     		movs	r0, #0
 194 00f0 FFF7FEFF 		bl	BatteryLed_Write
 195              	.LVL39:
  46:Drive.c       ****         sharp=10;
 196              		.loc 1 46 0
 197 00f4 0A22     		movs	r2, #10
 198 00f6 2A4B     		ldr	r3, .L19+16
 199 00f8 1A60     		str	r2, [r3]
  47:Drive.c       ****         fuckup=0;
 200              		.loc 1 47 0
 201 00fa 0022     		movs	r2, #0
 202 00fc 294B     		ldr	r3, .L19+20
 203 00fe 1A60     		str	r2, [r3]
  48:Drive.c       **** //        motor_turn(leftM,righhM,1);
  49:Drive.c       ****         if(leftM>righhM)
 204              		.loc 1 49 0
 205 0100 B845     		cmp	r8, r7
 206 0102 09DD     		ble	.L9
  50:Drive.c       ****         {
  51:Drive.c       ****             motor_turn(max,righhM,1);
 207              		.loc 1 51 0
 208 0104 0122     		movs	r2, #1
 209 0106 F9B2     		uxtb	r1, r7
 210 0108 234B     		ldr	r3, .L19+8
 211 010a 1878     		ldrb	r0, [r3]	@ zero_extendqisi2
 212 010c FFF7FEFF 		bl	motor_turn
 213              	.LVL40:
  52:Drive.c       ****             
  53:Drive.c       ****             dir=1;  //=oikealle   
 214              		.loc 1 53 0
 215 0110 0122     		movs	r2, #1
 216 0112 254B     		ldr	r3, .L19+24
 217 0114 1A60     		str	r2, [r3]
 218 0116 35E0     		b	.L1
 219              	.L9:
  54:Drive.c       **** 
  55:Drive.c       ****         }
  56:Drive.c       ****         else
  57:Drive.c       ****         {
  58:Drive.c       ****             motor_turn(leftM,max,1);
 220              		.loc 1 58 0
 221 0118 0122     		movs	r2, #1
 222 011a 1F4B     		ldr	r3, .L19+8
 223 011c 1978     		ldrb	r1, [r3]	@ zero_extendqisi2
 224 011e 5FFA88F0 		uxtb	r0, r8
 225 0122 FFF7FEFF 		bl	motor_turn
 226              	.LVL41:
  59:Drive.c       ****             
ARM GAS  C:\Users\allu9\AppData\Local\Temp\ccNwnQ2h.s 			page 6


  60:Drive.c       ****             dir=0;  //=vasemmalle
 227              		.loc 1 60 0
 228 0126 0022     		movs	r2, #0
 229 0128 1F4B     		ldr	r3, .L19+24
 230 012a 1A60     		str	r2, [r3]
 231 012c 2AE0     		b	.L1
 232              	.L6:
  61:Drive.c       ****         }
  62:Drive.c       ****         
  63:Drive.c       ****     }
  64:Drive.c       ****     
  65:Drive.c       ****     
  66:Drive.c       ****     else 
  67:Drive.c       ****     {
  68:Drive.c       ****     //BatteryLed_Write(1);
  69:Drive.c       ****     
  70:Drive.c       ****         if(dir==1)
 233              		.loc 1 70 0
 234 012e 1E4B     		ldr	r3, .L19+24
 235 0130 1B68     		ldr	r3, [r3]
 236 0132 012B     		cmp	r3, #1
 237 0134 08D1     		bne	.L11
  71:Drive.c       ****         {
  72:Drive.c       ****             motor_sharp_turn(0,1,max,sharp,1);
 238              		.loc 1 72 0
 239 0136 1A4B     		ldr	r3, .L19+16
 240 0138 1B78     		ldrb	r3, [r3]	@ zero_extendqisi2
 241 013a 174A     		ldr	r2, .L19+8
 242 013c 1278     		ldrb	r2, [r2]	@ zero_extendqisi2
 243 013e 0121     		movs	r1, #1
 244 0140 0091     		str	r1, [sp]
 245 0142 0020     		movs	r0, #0
 246 0144 FFF7FEFF 		bl	motor_sharp_turn
 247              	.LVL42:
 248              	.L11:
  73:Drive.c       ****         }
  74:Drive.c       ****         if(dir==0)
 249              		.loc 1 74 0
 250 0148 174B     		ldr	r3, .L19+24
 251 014a 1B68     		ldr	r3, [r3]
 252 014c 43B9     		cbnz	r3, .L12
  75:Drive.c       ****         {
  76:Drive.c       ****             motor_sharp_turn(1,0,sharp,max,1);
 253              		.loc 1 76 0
 254 014e 124B     		ldr	r3, .L19+8
 255 0150 1B78     		ldrb	r3, [r3]	@ zero_extendqisi2
 256 0152 134A     		ldr	r2, .L19+16
 257 0154 1278     		ldrb	r2, [r2]	@ zero_extendqisi2
 258 0156 0120     		movs	r0, #1
 259 0158 0090     		str	r0, [sp]
 260 015a 0021     		movs	r1, #0
 261 015c FFF7FEFF 		bl	motor_sharp_turn
 262              	.LVL43:
 263              	.L12:
  77:Drive.c       ****         }
  78:Drive.c       ****     fuckup++;
 264              		.loc 1 78 0
ARM GAS  C:\Users\allu9\AppData\Local\Temp\ccNwnQ2h.s 			page 7


 265 0160 104A     		ldr	r2, .L19+20
 266 0162 1368     		ldr	r3, [r2]
 267 0164 0133     		adds	r3, r3, #1
 268 0166 1360     		str	r3, [r2]
  79:Drive.c       ****     if(fuckup>=10)
 269              		.loc 1 79 0
 270 0168 092B     		cmp	r3, #9
 271 016a 0BDD     		ble	.L1
  80:Drive.c       ****         {
  81:Drive.c       ****             sharp+=10;
 272              		.loc 1 81 0
 273 016c 0C4A     		ldr	r2, .L19+16
 274 016e 1368     		ldr	r3, [r2]
 275 0170 0A33     		adds	r3, r3, #10
 276 0172 1360     		str	r3, [r2]
  82:Drive.c       ****             fuckup=0;
 277              		.loc 1 82 0
 278 0174 0021     		movs	r1, #0
 279 0176 0B4A     		ldr	r2, .L19+20
 280 0178 1160     		str	r1, [r2]
  83:Drive.c       ****             if(sharp>200)
 281              		.loc 1 83 0
 282 017a C82B     		cmp	r3, #200
 283 017c 02DD     		ble	.L1
  84:Drive.c       ****             {
  85:Drive.c       ****                 sharp=255;
 284              		.loc 1 85 0
 285 017e FF22     		movs	r2, #255
 286 0180 074B     		ldr	r3, .L19+16
 287 0182 1A60     		str	r2, [r3]
 288              	.L1:
  86:Drive.c       ****             }
  87:Drive.c       ****         }    
  88:Drive.c       ****     }
  89:Drive.c       ****     
  90:Drive.c       **** }...
 289              		.loc 1 90 0
 290 0184 02B0     		add	sp, sp, #8
 291              		.cfi_def_cfa_offset 24
 292              		@ sp needed
 293 0186 BDE8F081 		pop	{r4, r5, r6, r7, r8, pc}
 294              	.LVL44:
 295              	.L20:
 296 018a 00BFAFF3 		.align	3
 296      0080
 297              	.L19:
 298 0190 9A999999 		.word	-1717986918
 299 0194 9999E93F 		.word	1072273817
 300 0198 00000000 		.word	.LANCHOR0
 301 019c 0000E03F 		.word	1071644672
 302 01a0 00000000 		.word	sharp
 303 01a4 00000000 		.word	fuckup
 304 01a8 00000000 		.word	dir
 305              		.cfi_endproc
 306              	.LFE63:
 307              		.size	Drive, .-Drive
 308              		.comm	fuckup,4,4
ARM GAS  C:\Users\allu9\AppData\Local\Temp\ccNwnQ2h.s 			page 8


 309              		.comm	sharp,4,4
 310              		.global	laskuRaja
 311              		.global	korjaus
 312              		.global	mKorjaus
 313              		.global	max
 314              		.comm	dir,4,4
 315              		.comm	threshold,8,4
 316              		.data
 317              		.align	3
 318              		.set	.LANCHOR0,. + 0
 319              		.type	max, %object
 320              		.size	max, 4
 321              	max:
 322 0000 FF000000 		.word	255
 323 0004 00000000 		.space	4
 324              		.type	mKorjaus, %object
 325              		.size	mKorjaus, 8
 326              	mKorjaus:
 327 0008 00000000 		.word	0
 328 000c 0000F03F 		.word	1072693248
 329              		.type	laskuRaja, %object
 330              		.size	laskuRaja, 4
 331              	laskuRaja:
 332 0010 4B000000 		.word	75
 333 0014 00000000 		.space	4
 334              		.type	korjaus, %object
 335              		.size	korjaus, 8
 336              	korjaus:
 337 0018 00000000 		.word	0
 338 001c 0000F03F 		.word	1072693248
 339              		.text
 340              	.Letext0:
 341              		.file 2 "c:\\program files (x86)\\cypress\\psoc creator\\4.1\\psoc creator\\import\\gnu\\arm\\5.4.
 342              		.file 3 "c:\\program files (x86)\\cypress\\psoc creator\\4.1\\psoc creator\\import\\gnu\\arm\\5.4.
 343              		.file 4 ".\\ZumoLibrary/Reflectance.h"
 344              		.file 5 "Generated_Source\\PSoC5/core_cm3.h"
 345              		.file 6 "Generated_Source\\PSoC5/BatteryLed.h"
 346              		.file 7 ".\\ZumoLibrary/Motor.h"