ARM GAS  C:\Users\allu9\AppData\Local\Temp\ccQ83gFK.s 			page 1


   1              		.syntax unified
   2              		.cpu cortex-m3
   3              		.fpu softvfp
   4              		.eabi_attribute 20, 1
   5              		.eabi_attribute 21, 1
   6              		.eabi_attribute 23, 3
   7              		.eabi_attribute 24, 1
   8              		.eabi_attribute 25, 1
   9              		.eabi_attribute 26, 1
  10              		.eabi_attribute 30, 1
  11              		.eabi_attribute 34, 1
  12              		.eabi_attribute 18, 4
  13              		.thumb
  14              		.syntax unified
  15              		.file	"main.c"
  16              		.text
  17              	.Ltext0:
  18              		.cfi_sections	.debug_frame
  19              		.global	__aeabi_fmul
  20              		.global	__aeabi_f2d
  21              		.section	.text.checkBat,"ax",%progbits
  22              		.align	2
  23              		.global	checkBat
  24              		.thumb
  25              		.thumb_func
  26              		.type	checkBat, %function
  27              	checkBat:
  28              	.LFB65:
  29              		.file 1 "main.c"
   1:main.c        **** //Tuomo on autisti
   2:main.c        **** 
   3:main.c        **** 
   4:main.c        **** 
   5:main.c        **** 
   6:main.c        **** /**
   7:main.c        **** * @mainpage ZumoBot Project
   8:main.c        **** * @brief    You can make your own ZumoBot with various sensors.
   9:main.c        **** * @details  <br><br>
  10:main.c        ****     <p>
  11:main.c        ****     <B>General</B><br>
  12:main.c        ****     You will use Pololu Zumo Shields for your robot project with CY8CKIT-059(PSoC 5LP) from Cypress
  13:main.c        ****     library has basic methods of various sensors and communications so that you can make what you w
  14:main.c        ****     <br><br>
  15:main.c        ****     </p>
  16:main.c        ****     
  17:main.c        ****     <p>
  18:main.c        ****     <B>Sensors</B><br>
  19:main.c        ****     &nbsp;Included: <br>
  20:main.c        ****         &nbsp;&nbsp;&nbsp;&nbsp;LSM303D: Accelerometer & Magnetometer<br>
  21:main.c        ****         &nbsp;&nbsp;&nbsp;&nbsp;L3GD20H: Gyroscope<br>
  22:main.c        ****         &nbsp;&nbsp;&nbsp;&nbsp;Reflectance sensor<br>
  23:main.c        ****         &nbsp;&nbsp;&nbsp;&nbsp;Motors
  24:main.c        ****     &nbsp;Wii nunchuck<br>
  25:main.c        ****     &nbsp;TSOP-2236: IR Receiver<br>
  26:main.c        ****     &nbsp;HC-SR04: Ultrasonic sensor<br>
  27:main.c        ****     &nbsp;APDS-9301: Ambient light sensor<br>
  28:main.c        ****     &nbsp;IR LED <br><br><br>
ARM GAS  C:\Users\allu9\AppData\Local\Temp\ccQ83gFK.s 			page 2


  29:main.c        ****     </p>
  30:main.c        ****     
  31:main.c        ****     <p>
  32:main.c        ****     <B>Communication</B><br>
  33:main.c        ****     I2C, UART, Serial<br>
  34:main.c        ****     </p>
  35:main.c        **** */
  36:main.c        **** 
  37:main.c        **** #include <project.h>
  38:main.c        **** #include <stdio.h>
  39:main.c        **** #include "Motor.h"
  40:main.c        **** #include "Ultra.h"
  41:main.c        **** #include "Nunchuk.h"
  42:main.c        **** #include "Reflectance.h"
  43:main.c        **** //#include "Reflectance.c"
  44:main.c        **** #include "I2C_made.h"
  45:main.c        **** #include "Gyro.h"
  46:main.c        **** #include "Accel_magnet.h"
  47:main.c        **** #include "IR.h"
  48:main.c        **** #include "Ambient.h"
  49:main.c        **** #include "Beep.h"
  50:main.c        **** #include "Drive.h"
  51:main.c        **** 
  52:main.c        **** int rread(void);
  53:main.c        **** 
  54:main.c        **** /**
  55:main.c        ****  * @file    main.c
  56:main.c        ****  * @brief   
  57:main.c        ****  * @details  ** You should enable global interrupt for operating properly. **<br>&nbsp;&nbsp;&nbsp;
  58:main.c        **** */
  59:main.c        **** 
  60:main.c        **** 
  61:main.c        **** float checkBat();
  62:main.c        **** 
  63:main.c        **** //battery level//
  64:main.c        **** int main()
  65:main.c        **** {
  66:main.c        ****     struct sensors_ ref;
  67:main.c        ****     struct sensors_ dig;
  68:main.c        ****     
  69:main.c        ****     int i,delay = 0;
  70:main.c        ****     int wCalib = 1; //bCalib = 1;
  71:main.c        ****     
  72:main.c        ****     int rajaArvo[4],/*b[4],*/w[4];
  73:main.c        ****     
  74:main.c        ****     CyGlobalIntEnable; 
  75:main.c        ****     UART_1_Start();
  76:main.c        ****     ADC_Battery_Start();        
  77:main.c        ****     //int delay= 1;
  78:main.c        ****     
  79:main.c        ****     printf("\nBoot\n");
  80:main.c        **** 
  81:main.c        ****     //BatteryLed_Write(1); // Switch led on 
  82:main.c        ****     BatteryLed_Write(0); // Switch led off 
  83:main.c        ****     //uint8 button;
  84:main.c        ****     //button = SW1_Read(); // read SW1 on pSoC board
  85:main.c        **** 
ARM GAS  C:\Users\allu9\AppData\Local\Temp\ccQ83gFK.s 			page 3


  86:main.c        ****     
  87:main.c        ****         sensor_isr_StartEx(sensor_isr_handler);
  88:main.c        ****         
  89:main.c        ****     while(checkBat()<4)
  90:main.c        ****         {
  91:main.c        ****             //motor_stop();
  92:main.c        ****             BatteryLed_Write(1);
  93:main.c        ****             CyDelay(250);
  94:main.c        ****             BatteryLed_Write(0);
  95:main.c        ****             CyDelay(250); 
  96:main.c        ****             
  97:main.c        ****         }    
  98:main.c        ****         
  99:main.c        ****     IR_led_Write(1);
 100:main.c        ****     reflectance_start();
 101:main.c        ****     
 102:main.c        ****     while(wCalib){
 103:main.c        ****         if(SW1_Read()==0){
 104:main.c        ****             
 105:main.c        ****             reflectance_read(&ref);
 106:main.c        ****             w[0] = ref.l3;
 107:main.c        ****             w[1] = ref.l1;
 108:main.c        ****             w[2] = ref.r1;
 109:main.c        ****             w[3] = ref.r3;
 110:main.c        ****             
 111:main.c        ****             wCalib = 0;
 112:main.c        ****         }
 113:main.c        ****     }
 114:main.c        ****     BatteryLed_Write(1);
 115:main.c        ****     CyDelay(1000);
 116:main.c        ****     BatteryLed_Write(0);
 117:main.c        ****     
 118:main.c        **** //    while(bCalib){
 119:main.c        **** //        if(SW1_Read()==0){
 120:main.c        **** //            
 121:main.c        **** //            reflectance_read(&ref);
 122:main.c        **** //            b[0] = ref.l3;
 123:main.c        **** //            b[1] = ref.l1;
 124:main.c        **** //            b[2] = ref.r1;
 125:main.c        **** //            b[3] = ref.r3;
 126:main.c        **** //            
 127:main.c        **** //            bCalib = 0;
 128:main.c        **** //        }
 129:main.c        **** //        
 130:main.c        **** //    }
 131:main.c        **** //    
 132:main.c        **** //    BatteryLed_Write(1);
 133:main.c        **** //    CyDelay(1000);
 134:main.c        **** //    BatteryLed_Write(0);
 135:main.c        ****     
 136:main.c        ****     for(i=0; i<4; i++){
 137:main.c        ****         rajaArvo[i] = (23999 + w[i]) / 2;
 138:main.c        ****         printf("%d ", rajaArvo[i]);
 139:main.c        ****     }
 140:main.c        ****     printf("\n");
 141:main.c        ****     
 142:main.c        **** 
ARM GAS  C:\Users\allu9\AppData\Local\Temp\ccQ83gFK.s 			page 4


 143:main.c        ****     reflectance_set_threshold(rajaArvo[0], rajaArvo[1], rajaArvo[2], rajaArvo[3]);
 144:main.c        ****     int ral1=threshold.l1;
 145:main.c        ****     printf("%d\n",ral1);
 146:main.c        ****     Beep(100,50);
 147:main.c        ****     while(SW1_Read()){
 148:main.c        ****         
 149:main.c        ****     }
 150:main.c        **** 
 151:main.c        **** for(;;)
 152:main.c        **** {
 153:main.c        ****     
 154:main.c        ****     if(SW1_Read()==0)
 155:main.c        ****     {
 156:main.c        ****         Beep(100,20);
 157:main.c        ****         CyDelay(50);
 158:main.c        ****         Beep(100,20);
 159:main.c        ****           
 160:main.c        ****         while(checkBat()<4)
 161:main.c        ****             {
 162:main.c        ****                 //motor_stop();
 163:main.c        ****                 BatteryLed_Write(1);
 164:main.c        ****                 CyDelay(250);
 165:main.c        ****                 BatteryLed_Write(0);
 166:main.c        ****                 CyDelay(250); 
 167:main.c        ****                 
 168:main.c        ****             }
 169:main.c        **** 
 170:main.c        ****         
 171:main.c        ****         CyDelay(1000);
 172:main.c        ****         motor_start();
 173:main.c        ****         
 174:main.c        **** //        motor_forward(150,300);
 175:main.c        ****         int finish=0;
 176:main.c        ****         
 177:main.c        ****         while(finish<1)
 178:main.c        ****         {
 179:main.c        ****             reflectance_read(&ref);
 180:main.c        ****             reflectance_digital(&dig);      //print out 0 or 1 according to results of reflectance 
 181:main.c        ****             printf("%d %d %d %d \r\n", ref.l3, ref.l1, ref.r1, ref.r3);        //print out 0 or 1 a
 182:main.c        ****             
 183:main.c        **** //            if(dig.l3==0&&dig.l1==0&&dig.r1==0&&dig.r3==0)
 184:main.c        **** //            {
 185:main.c        **** //                finish++;
 186:main.c        **** //                
 187:main.c        **** //            }
 188:main.c        ****             
 189:main.c        ****             Drive(ref.l3, ref.l1,ref.r1,ref.r3,w[2],w[3]);
 190:main.c        ****             
 191:main.c        ****             if(delay==5000)
 192:main.c        ****             {
 193:main.c        ****                 while(checkBat()<4)
 194:main.c        ****                     {
 195:main.c        ****                         //motor_stop();
 196:main.c        ****                         BatteryLed_Write(1);
 197:main.c        ****                         CyDelay(250);
 198:main.c        ****                         BatteryLed_Write(0);
 199:main.c        ****                         CyDelay(250); 
ARM GAS  C:\Users\allu9\AppData\Local\Temp\ccQ83gFK.s 			page 5


 200:main.c        ****                         
 201:main.c        ****                     }
 202:main.c        ****                 delay=0;
 203:main.c        ****             } 
 204:main.c        ****             delay++;
 205:main.c        ****             //CyDelay(500);
 206:main.c        ****         
 207:main.c        ****         
 208:main.c        ****         }   
 209:main.c        ****         motor_forward(200,170);
 210:main.c        ****         motor_stop();
 211:main.c        ****     }
 212:main.c        ****         //CyDelay(1000);
 213:main.c        **** }
 214:main.c        ****     
 215:main.c        ****     
 216:main.c        ****        
 217:main.c        **** 
 218:main.c        **** CyDelay(100);
 219:main.c        **** 
 220:main.c        ****     
 221:main.c        ****       for(;;)
 222:main.c        ****     {}
 223:main.c        **** }        
 224:main.c        **** 
 225:main.c        **** 
 226:main.c        **** 
 227:main.c        **** float checkBat()
 228:main.c        **** {
  30              		.loc 1 228 0
  31              		.cfi_startproc
  32              		@ args = 0, pretend = 0, frame = 0
  33              		@ frame_needed = 0, uses_anonymous_args = 0
  34 0000 38B5     		push	{r3, r4, r5, lr}
  35              		.cfi_def_cfa_offset 16
  36              		.cfi_offset 3, -16
  37              		.cfi_offset 4, -12
  38              		.cfi_offset 5, -8
  39              		.cfi_offset 14, -4
  40              	.LVL0:
 229:main.c        ****     int16 adcresult =0;
 230:main.c        ****     float volts = 0.0;
 231:main.c        ****     ADC_Battery_StartConvert();
  41              		.loc 1 231 0
  42 0002 FFF7FEFF 		bl	ADC_Battery_StartConvert
  43              	.LVL1:
 232:main.c        ****     if(ADC_Battery_IsEndConversion(ADC_Battery_WAIT_FOR_RESULT)) 
  44              		.loc 1 232 0
  45 0006 0020     		movs	r0, #0
  46 0008 FFF7FEFF 		bl	ADC_Battery_IsEndConversion
  47              	.LVL2:
  48 000c 90B1     		cbz	r0, .L3
 233:main.c        ****     {   // wait for get ADC converted value
 234:main.c        ****         adcresult = ADC_Battery_GetResult16();
  49              		.loc 1 234 0
  50 000e FFF7FEFF 		bl	ADC_Battery_GetResult16
  51              	.LVL3:
ARM GAS  C:\Users\allu9\AppData\Local\Temp\ccQ83gFK.s 			page 6


  52 0012 0546     		mov	r5, r0
  53              	.LVL4:
 235:main.c        ****         volts = ADC_Battery_CountsTo_Volts(adcresult)*1.5;                  // convert value to Vol
  54              		.loc 1 235 0
  55 0014 FFF7FEFF 		bl	ADC_Battery_CountsTo_Volts
  56              	.LVL5:
  57 0018 4FF07F51 		mov	r1, #1069547520
  58 001c FFF7FEFF 		bl	__aeabi_fmul
  59              	.LVL6:
  60 0020 0446     		mov	r4, r0
  61              	.LVL7:
 236:main.c        ****     
 237:main.c        ****         // If you want to print value
 238:main.c        ****         printf("%d %f\r\n",adcresult, volts);
  62              		.loc 1 238 0
  63 0022 FFF7FEFF 		bl	__aeabi_f2d
  64              	.LVL8:
  65 0026 0246     		mov	r2, r0
  66 0028 0B46     		mov	r3, r1
  67 002a 2946     		mov	r1, r5
  68 002c 0348     		ldr	r0, .L5
  69 002e FFF7FEFF 		bl	printf
  70              	.LVL9:
  71 0032 00E0     		b	.L2
  72              	.LVL10:
  73              	.L3:
 230:main.c        ****     ADC_Battery_StartConvert();
  74              		.loc 1 230 0
  75 0034 0024     		movs	r4, #0
  76              	.LVL11:
  77              	.L2:
 239:main.c        ****         
 240:main.c        ****     }
 241:main.c        ****     return(volts);
 242:main.c        **** }
  78              		.loc 1 242 0
  79 0036 2046     		mov	r0, r4
  80 0038 38BD     		pop	{r3, r4, r5, pc}
  81              	.LVL12:
  82              	.L6:
  83 003a 00BF     		.align	2
  84              	.L5:
  85 003c 00000000 		.word	.LC0
  86              		.cfi_endproc
  87              	.LFE65:
  88              		.size	checkBat, .-checkBat
  89              		.global	__aeabi_fcmplt
  90              		.section	.text.main,"ax",%progbits
  91              		.align	2
  92              		.global	main
  93              		.thumb
  94              		.thumb_func
  95              		.type	main, %function
  96              	main:
  97              	.LFB64:
  65:main.c        ****     struct sensors_ ref;
  98              		.loc 1 65 0
ARM GAS  C:\Users\allu9\AppData\Local\Temp\ccQ83gFK.s 			page 7


  99              		.cfi_startproc
 100              		@ args = 0, pretend = 0, frame = 48
 101              		@ frame_needed = 0, uses_anonymous_args = 0
 102 0000 30B5     		push	{r4, r5, lr}
 103              		.cfi_def_cfa_offset 12
 104              		.cfi_offset 4, -12
 105              		.cfi_offset 5, -8
 106              		.cfi_offset 14, -4
 107 0002 8FB0     		sub	sp, sp, #60
 108              		.cfi_def_cfa_offset 72
 109              	.LVL13:
  74:main.c        ****     UART_1_Start();
 110              		.loc 1 74 0
 111              		.syntax unified
 112              	@ 74 "main.c" 1
 113 0004 62B6     		CPSIE   i
 114              	@ 0 "" 2
  75:main.c        ****     ADC_Battery_Start();        
 115              		.loc 1 75 0
 116              		.thumb
 117              		.syntax unified
 118 0006 FFF7FEFF 		bl	UART_1_Start
 119              	.LVL14:
  76:main.c        ****     //int delay= 1;
 120              		.loc 1 76 0
 121 000a FFF7FEFF 		bl	ADC_Battery_Start
 122              	.LVL15:
  79:main.c        **** 
 123              		.loc 1 79 0
 124 000e 6C48     		ldr	r0, .L24
 125 0010 FFF7FEFF 		bl	puts
 126              	.LVL16:
  82:main.c        ****     //uint8 button;
 127              		.loc 1 82 0
 128 0014 0020     		movs	r0, #0
 129 0016 FFF7FEFF 		bl	BatteryLed_Write
 130              	.LVL17:
  87:main.c        ****         
 131              		.loc 1 87 0
 132 001a 6A48     		ldr	r0, .L24+4
 133 001c FFF7FEFF 		bl	sensor_isr_StartEx
 134              	.LVL18:
  89:main.c        ****         {
 135              		.loc 1 89 0
 136 0020 0BE0     		b	.L8
 137              	.L9:
  92:main.c        ****             CyDelay(250);
 138              		.loc 1 92 0
 139 0022 0120     		movs	r0, #1
 140 0024 FFF7FEFF 		bl	BatteryLed_Write
 141              	.LVL19:
  93:main.c        ****             BatteryLed_Write(0);
 142              		.loc 1 93 0
 143 0028 FA20     		movs	r0, #250
 144 002a FFF7FEFF 		bl	CyDelay
 145              	.LVL20:
  94:main.c        ****             CyDelay(250); 
ARM GAS  C:\Users\allu9\AppData\Local\Temp\ccQ83gFK.s 			page 8


 146              		.loc 1 94 0
 147 002e 0020     		movs	r0, #0
 148 0030 FFF7FEFF 		bl	BatteryLed_Write
 149              	.LVL21:
  95:main.c        ****             
 150              		.loc 1 95 0
 151 0034 FA20     		movs	r0, #250
 152 0036 FFF7FEFF 		bl	CyDelay
 153              	.LVL22:
 154              	.L8:
  89:main.c        ****         {
 155              		.loc 1 89 0
 156 003a FFF7FEFF 		bl	checkBat
 157              	.LVL23:
 158 003e 4FF08141 		mov	r1, #1082130432
 159 0042 FFF7FEFF 		bl	__aeabi_fcmplt
 160              	.LVL24:
 161 0046 0028     		cmp	r0, #0
 162 0048 EBD1     		bne	.L9
  99:main.c        ****     reflectance_start();
 163              		.loc 1 99 0
 164 004a 0120     		movs	r0, #1
 165 004c FFF7FEFF 		bl	IR_led_Write
 166              	.LVL25:
 100:main.c        ****     
 167              		.loc 1 100 0
 168 0050 FFF7FEFF 		bl	reflectance_start
 169              	.LVL26:
  70:main.c        ****     
 170              		.loc 1 70 0
 171 0054 0124     		movs	r4, #1
 102:main.c        ****         if(SW1_Read()==0){
 172              		.loc 1 102 0
 173 0056 12E0     		b	.L11
 174              	.LVL27:
 175              	.L12:
 103:main.c        ****             
 176              		.loc 1 103 0
 177 0058 FFF7FEFF 		bl	SW1_Read
 178              	.LVL28:
 179 005c 78B9     		cbnz	r0, .L11
 105:main.c        ****             w[0] = ref.l3;
 180              		.loc 1 105 0
 181 005e 0CA8     		add	r0, sp, #48
 182 0060 FFF7FEFF 		bl	reflectance_read
 183              	.LVL29:
 106:main.c        ****             w[1] = ref.l1;
 184              		.loc 1 106 0
 185 0064 BDF83030 		ldrh	r3, [sp, #48]
 186 0068 0293     		str	r3, [sp, #8]
 107:main.c        ****             w[2] = ref.r1;
 187              		.loc 1 107 0
 188 006a BDF83230 		ldrh	r3, [sp, #50]
 189 006e 0393     		str	r3, [sp, #12]
 108:main.c        ****             w[3] = ref.r3;
 190              		.loc 1 108 0
 191 0070 BDF83430 		ldrh	r3, [sp, #52]
ARM GAS  C:\Users\allu9\AppData\Local\Temp\ccQ83gFK.s 			page 9


 192 0074 0493     		str	r3, [sp, #16]
 109:main.c        ****             
 193              		.loc 1 109 0
 194 0076 BDF83630 		ldrh	r3, [sp, #54]
 195 007a 0593     		str	r3, [sp, #20]
 196              	.LVL30:
 111:main.c        ****         }
 197              		.loc 1 111 0
 198 007c 0024     		movs	r4, #0
 199              	.LVL31:
 200              	.L11:
 102:main.c        ****         if(SW1_Read()==0){
 201              		.loc 1 102 0
 202 007e 002C     		cmp	r4, #0
 203 0080 EAD1     		bne	.L12
 114:main.c        ****     CyDelay(1000);
 204              		.loc 1 114 0
 205 0082 0120     		movs	r0, #1
 206 0084 FFF7FEFF 		bl	BatteryLed_Write
 207              	.LVL32:
 115:main.c        ****     BatteryLed_Write(0);
 208              		.loc 1 115 0
 209 0088 4FF47A70 		mov	r0, #1000
 210 008c FFF7FEFF 		bl	CyDelay
 211              	.LVL33:
 116:main.c        ****     
 212              		.loc 1 116 0
 213 0090 0020     		movs	r0, #0
 214 0092 FFF7FEFF 		bl	BatteryLed_Write
 215              	.LVL34:
 136:main.c        ****         rajaArvo[i] = (23999 + w[i]) / 2;
 216              		.loc 1 136 0
 217 0096 10E0     		b	.L13
 218              	.LVL35:
 219              	.L14:
 137:main.c        ****         printf("%d ", rajaArvo[i]);
 220              		.loc 1 137 0 discriminator 3
 221 0098 0EAB     		add	r3, sp, #56
 222 009a 03EB8402 		add	r2, r3, r4, lsl #2
 223 009e 52F8303C 		ldr	r3, [r2, #-48]
 224 00a2 03F5BB43 		add	r3, r3, #23936
 225 00a6 3F33     		adds	r3, r3, #63
 226 00a8 03EBD373 		add	r3, r3, r3, lsr #31
 227 00ac 5910     		asrs	r1, r3, #1
 228 00ae 42F8201C 		str	r1, [r2, #-32]
 138:main.c        ****     }
 229              		.loc 1 138 0 discriminator 3
 230 00b2 4548     		ldr	r0, .L24+8
 231 00b4 FFF7FEFF 		bl	printf
 232              	.LVL36:
 136:main.c        ****         rajaArvo[i] = (23999 + w[i]) / 2;
 233              		.loc 1 136 0 discriminator 3
 234 00b8 0134     		adds	r4, r4, #1
 235              	.LVL37:
 236              	.L13:
 136:main.c        ****         rajaArvo[i] = (23999 + w[i]) / 2;
 237              		.loc 1 136 0 is_stmt 0 discriminator 1
ARM GAS  C:\Users\allu9\AppData\Local\Temp\ccQ83gFK.s 			page 10


 238 00ba 032C     		cmp	r4, #3
 239 00bc ECDD     		ble	.L14
 140:main.c        ****     
 240              		.loc 1 140 0 is_stmt 1
 241 00be 0A20     		movs	r0, #10
 242 00c0 FFF7FEFF 		bl	putchar
 243              	.LVL38:
 143:main.c        ****     int ral1=threshold.l1;
 244              		.loc 1 143 0
 245 00c4 BDF82430 		ldrh	r3, [sp, #36]
 246 00c8 BDF82020 		ldrh	r2, [sp, #32]
 247 00cc BDF81C10 		ldrh	r1, [sp, #28]
 248 00d0 BDF81800 		ldrh	r0, [sp, #24]
 249 00d4 FFF7FEFF 		bl	reflectance_set_threshold
 250              	.LVL39:
 145:main.c        ****     Beep(100,50);
 251              		.loc 1 145 0
 252 00d8 3C4B     		ldr	r3, .L24+12
 253 00da 5988     		ldrh	r1, [r3, #2]
 254              	.LVL40:
 255 00dc 3C48     		ldr	r0, .L24+16
 256 00de FFF7FEFF 		bl	printf
 257              	.LVL41:
 146:main.c        ****     while(SW1_Read()){
 258              		.loc 1 146 0
 259 00e2 3221     		movs	r1, #50
 260 00e4 6420     		movs	r0, #100
 261 00e6 FFF7FEFF 		bl	Beep
 262              	.LVL42:
 263              	.L15:
 147:main.c        ****         
 264              		.loc 1 147 0 discriminator 1
 265 00ea FFF7FEFF 		bl	SW1_Read
 266              	.LVL43:
 267 00ee 0028     		cmp	r0, #0
 268 00f0 FBD1     		bne	.L15
 269              	.L16:
 154:main.c        ****     {
 270              		.loc 1 154 0
 271 00f2 FFF7FEFF 		bl	SW1_Read
 272              	.LVL44:
 273 00f6 0028     		cmp	r0, #0
 274 00f8 FBD1     		bne	.L16
 275              	.LBB2:
 156:main.c        ****         CyDelay(50);
 276              		.loc 1 156 0
 277 00fa 1421     		movs	r1, #20
 278 00fc 6420     		movs	r0, #100
 279 00fe FFF7FEFF 		bl	Beep
 280              	.LVL45:
 157:main.c        ****         Beep(100,20);
 281              		.loc 1 157 0
 282 0102 3220     		movs	r0, #50
 283 0104 FFF7FEFF 		bl	CyDelay
 284              	.LVL46:
 158:main.c        ****           
 285              		.loc 1 158 0
ARM GAS  C:\Users\allu9\AppData\Local\Temp\ccQ83gFK.s 			page 11


 286 0108 1421     		movs	r1, #20
 287 010a 6420     		movs	r0, #100
 288 010c FFF7FEFF 		bl	Beep
 289              	.LVL47:
 160:main.c        ****             {
 290              		.loc 1 160 0
 291 0110 0BE0     		b	.L17
 292              	.L18:
 163:main.c        ****                 CyDelay(250);
 293              		.loc 1 163 0
 294 0112 0120     		movs	r0, #1
 295 0114 FFF7FEFF 		bl	BatteryLed_Write
 296              	.LVL48:
 164:main.c        ****                 BatteryLed_Write(0);
 297              		.loc 1 164 0
 298 0118 FA20     		movs	r0, #250
 299 011a FFF7FEFF 		bl	CyDelay
 300              	.LVL49:
 165:main.c        ****                 CyDelay(250); 
 301              		.loc 1 165 0
 302 011e 0020     		movs	r0, #0
 303 0120 FFF7FEFF 		bl	BatteryLed_Write
 304              	.LVL50:
 166:main.c        ****                 
 305              		.loc 1 166 0
 306 0124 FA20     		movs	r0, #250
 307 0126 FFF7FEFF 		bl	CyDelay
 308              	.LVL51:
 309              	.L17:
 160:main.c        ****             {
 310              		.loc 1 160 0
 311 012a FFF7FEFF 		bl	checkBat
 312              	.LVL52:
 313 012e 4FF08141 		mov	r1, #1082130432
 314 0132 FFF7FEFF 		bl	__aeabi_fcmplt
 315              	.LVL53:
 316 0136 0028     		cmp	r0, #0
 317 0138 EBD1     		bne	.L18
 171:main.c        ****         motor_start();
 318              		.loc 1 171 0
 319 013a 4FF47A70 		mov	r0, #1000
 320 013e FFF7FEFF 		bl	CyDelay
 321              	.LVL54:
 172:main.c        ****         
 322              		.loc 1 172 0
 323 0142 FFF7FEFF 		bl	motor_start
 324              	.LVL55:
 177:main.c        ****         {
 325              		.loc 1 177 0
 326 0146 0024     		movs	r4, #0
 327              	.LVL56:
 328 0148 15E0     		b	.L19
 329              	.LVL57:
 330              	.L20:
 196:main.c        ****                         CyDelay(250);
 331              		.loc 1 196 0
 332 014a 0120     		movs	r0, #1
ARM GAS  C:\Users\allu9\AppData\Local\Temp\ccQ83gFK.s 			page 12


 333 014c FFF7FEFF 		bl	BatteryLed_Write
 334              	.LVL58:
 197:main.c        ****                         BatteryLed_Write(0);
 335              		.loc 1 197 0
 336 0150 FA20     		movs	r0, #250
 337 0152 FFF7FEFF 		bl	CyDelay
 338              	.LVL59:
 198:main.c        ****                         CyDelay(250); 
 339              		.loc 1 198 0
 340 0156 0020     		movs	r0, #0
 341 0158 FFF7FEFF 		bl	BatteryLed_Write
 342              	.LVL60:
 199:main.c        ****                         
 343              		.loc 1 199 0
 344 015c FA20     		movs	r0, #250
 345 015e FFF7FEFF 		bl	CyDelay
 346              	.LVL61:
 347              	.L21:
 193:main.c        ****                     {
 348              		.loc 1 193 0
 349 0162 FFF7FEFF 		bl	checkBat
 350              	.LVL62:
 351 0166 4FF08141 		mov	r1, #1082130432
 352 016a FFF7FEFF 		bl	__aeabi_fcmplt
 353              	.LVL63:
 354 016e 0028     		cmp	r0, #0
 355 0170 EBD1     		bne	.L20
 202:main.c        ****             } 
 356              		.loc 1 202 0
 357 0172 0024     		movs	r4, #0
 358              	.LVL64:
 359              	.L22:
 204:main.c        ****             //CyDelay(500);
 360              		.loc 1 204 0
 361 0174 0134     		adds	r4, r4, #1
 362              	.LVL65:
 363              	.L19:
 179:main.c        ****             reflectance_digital(&dig);      //print out 0 or 1 according to results of reflectance 
 364              		.loc 1 179 0
 365 0176 0CA8     		add	r0, sp, #48
 366 0178 FFF7FEFF 		bl	reflectance_read
 367              	.LVL66:
 180:main.c        ****             printf("%d %d %d %d \r\n", ref.l3, ref.l1, ref.r1, ref.r3);        //print out 0 or 1 a
 368              		.loc 1 180 0
 369 017c 0AA8     		add	r0, sp, #40
 370 017e FFF7FEFF 		bl	reflectance_digital
 371              	.LVL67:
 181:main.c        ****             
 372              		.loc 1 181 0
 373 0182 BDF83010 		ldrh	r1, [sp, #48]
 374 0186 BDF83220 		ldrh	r2, [sp, #50]
 375 018a BDF83430 		ldrh	r3, [sp, #52]
 376 018e BDF83600 		ldrh	r0, [sp, #54]
 377 0192 0090     		str	r0, [sp]
 378 0194 0F48     		ldr	r0, .L24+20
 379 0196 FFF7FEFF 		bl	printf
 380              	.LVL68:
ARM GAS  C:\Users\allu9\AppData\Local\Temp\ccQ83gFK.s 			page 13


 189:main.c        ****             
 381              		.loc 1 189 0
 382 019a BDF83000 		ldrh	r0, [sp, #48]
 383 019e BDF83210 		ldrh	r1, [sp, #50]
 384 01a2 BDF83420 		ldrh	r2, [sp, #52]
 385 01a6 BDF83630 		ldrh	r3, [sp, #54]
 386 01aa 059D     		ldr	r5, [sp, #20]
 387 01ac 0195     		str	r5, [sp, #4]
 388 01ae 049D     		ldr	r5, [sp, #16]
 389 01b0 0095     		str	r5, [sp]
 390 01b2 FFF7FEFF 		bl	Drive
 391              	.LVL69:
 191:main.c        ****             {
 392              		.loc 1 191 0
 393 01b6 41F28833 		movw	r3, #5000
 394 01ba 9C42     		cmp	r4, r3
 395 01bc DAD1     		bne	.L22
 396 01be D0E7     		b	.L21
 397              	.L25:
 398              		.align	2
 399              	.L24:
 400 01c0 08000000 		.word	.LC1
 401 01c4 00000000 		.word	sensor_isr_handler
 402 01c8 10000000 		.word	.LC2
 403 01cc 00000000 		.word	threshold
 404 01d0 14000000 		.word	.LC3
 405 01d4 18000000 		.word	.LC4
 406              	.LBE2:
 407              		.cfi_endproc
 408              	.LFE64:
 409              		.size	main, .-main
 410              		.section	.text._write,"ax",%progbits
 411              		.align	2
 412              		.global	_write
 413              		.thumb
 414              		.thumb_func
 415              		.type	_write, %function
 416              	_write:
 417              	.LFB66:
 243:main.c        **** 
 244:main.c        **** 
 245:main.c        **** //*/
 246:main.c        **** 
 247:main.c        **** 
 248:main.c        **** /*//ultra sonic sensor//
 249:main.c        **** int main()
 250:main.c        **** {
 251:main.c        ****     CyGlobalIntEnable; 
 252:main.c        ****     UART_1_Start();
 253:main.c        ****     Ultra_Start();                          // Ultra Sonic Start function
 254:main.c        ****     while(1) {
 255:main.c        ****         //If you want to print out the value  
 256:main.c        ****         printf("distance = %5.0f\r\n", Ultra_GetDistance());
 257:main.c        ****         CyDelay(1000);
 258:main.c        ****     }
 259:main.c        **** }   
 260:main.c        **** //*/
ARM GAS  C:\Users\allu9\AppData\Local\Temp\ccQ83gFK.s 			page 14


 261:main.c        **** 
 262:main.c        **** 
 263:main.c        **** /*//nunchuk//
 264:main.c        **** int main()
 265:main.c        **** {
 266:main.c        ****     CyGlobalIntEnable; 
 267:main.c        ****     UART_1_Start();
 268:main.c        ****   
 269:main.c        ****     nunchuk_start();
 270:main.c        ****     nunchuk_init();
 271:main.c        ****     
 272:main.c        ****     for(;;)
 273:main.c        ****     {    
 274:main.c        ****         nunchuk_read();
 275:main.c        ****     }
 276:main.c        **** }   
 277:main.c        **** //*/
 278:main.c        **** 
 279:main.c        **** 
 280:main.c        **** /*//IR receiver//
 281:main.c        **** int main()
 282:main.c        **** {
 283:main.c        ****     CyGlobalIntEnable; 
 284:main.c        ****     UART_1_Start();
 285:main.c        ****     
 286:main.c        ****     unsigned int IR_val; 
 287:main.c        ****     
 288:main.c        ****     for(;;)
 289:main.c        ****     {
 290:main.c        ****        IR_val = get_IR();
 291:main.c        ****        printf("%x\r\n\n",IR_val);
 292:main.c        ****     }    
 293:main.c        ****  }   
 294:main.c        **** //*/
 295:main.c        **** 
 296:main.c        **** 
 297:main.c        **** /*//Ambient light sensor//
 298:main.c        **** int main()
 299:main.c        **** {
 300:main.c        ****     CyGlobalIntEnable; 
 301:main.c        ****     UART_1_Start();
 302:main.c        ****     
 303:main.c        ****     I2C_Start();
 304:main.c        ****     
 305:main.c        ****     I2C_write(0x29,0x80,0x00);          // set to power down
 306:main.c        ****     I2C_write(0x29,0x80,0x03);          // set to power on
 307:main.c        ****     
 308:main.c        ****     for(;;)
 309:main.c        ****     {    
 310:main.c        ****         uint8 Data0Low,Data0High,Data1Low,Data1High;
 311:main.c        ****         Data0Low = I2C_read(0x29,CH0_L);
 312:main.c        ****         Data0High = I2C_read(0x29,CH0_H);
 313:main.c        ****         Data1Low = I2C_read(0x29,CH1_L);
 314:main.c        ****         Data1High = I2C_read(0x29,CH1_H);
 315:main.c        ****         
 316:main.c        ****         uint8 CH0, CH1;
 317:main.c        ****         CH0 = convert_raw(Data0Low,Data0High);      // combine Data0
ARM GAS  C:\Users\allu9\AppData\Local\Temp\ccQ83gFK.s 			page 15


 318:main.c        ****         CH1 = convert_raw(Data1Low,Data1High);      // combine Data1
 319:main.c        **** 
 320:main.c        ****         double Ch0 = CH0;
 321:main.c        ****         double Ch1 = CH1;
 322:main.c        ****         
 323:main.c        ****         double data = 0;
 324:main.c        ****         data = getLux(Ch0,Ch1);
 325:main.c        ****         
 326:main.c        ****         // If you want to print out data
 327:main.c        ****         //printf("%lf\r\n",data);    
 328:main.c        ****     }    
 329:main.c        ****  }   
 330:main.c        **** //*/
 331:main.c        **** 
 332:main.c        **** 
 333:main.c        **** /*//accelerometer//
 334:main.c        **** int main()
 335:main.c        **** {
 336:main.c        ****     CyGlobalIntEnable; 
 337:main.c        ****     UART_1_Start();
 338:main.c        ****   
 339:main.c        ****     I2C_Start();
 340:main.c        ****   
 341:main.c        ****     uint8 X_L_A, X_H_A, Y_L_A, Y_H_A, Z_L_A, Z_H_A;
 342:main.c        ****     int16 X_AXIS_A, Y_AXIS_A, Z_AXIS_A;
 343:main.c        ****     
 344:main.c        ****     I2C_write(ACCEL_MAG_ADDR, ACCEL_CTRL1_REG, 0x37);           // set accelerometer & magnetometer
 345:main.c        ****     I2C_write(ACCEL_MAG_ADDR, ACCEL_CTRL7_REG, 0x22);
 346:main.c        ****     
 347:main.c        ****     
 348:main.c        ****     for(;;)
 349:main.c        ****     {
 350:main.c        ****         //print out accelerometer output
 351:main.c        ****         X_L_A = I2C_read(ACCEL_MAG_ADDR, OUT_X_L_A);
 352:main.c        ****         X_H_A = I2C_read(ACCEL_MAG_ADDR, OUT_X_H_A);
 353:main.c        ****         X_AXIS_A = convert_raw(X_L_A, X_H_A);
 354:main.c        ****         
 355:main.c        ****         Y_L_A = I2C_read(ACCEL_MAG_ADDR, OUT_Y_L_A);
 356:main.c        ****         Y_H_A = I2C_read(ACCEL_MAG_ADDR, OUT_Y_H_A);
 357:main.c        ****         Y_AXIS_A = convert_raw(Y_L_A, Y_H_A);
 358:main.c        ****         
 359:main.c        ****         Z_L_A = I2C_read(ACCEL_MAG_ADDR, OUT_Z_L_A);
 360:main.c        ****         Z_H_A = I2C_read(ACCEL_MAG_ADDR, OUT_Z_H_A);
 361:main.c        ****         Z_AXIS_A = convert_raw(Z_L_A, Z_H_A);
 362:main.c        ****         
 363:main.c        ****         printf("ACCEL: %d %d %d %d %d %d \r\n", X_L_A, X_H_A, Y_L_A, Y_H_A, Z_L_A, Z_H_A);
 364:main.c        ****         value_convert_accel(X_AXIS_A, Y_AXIS_A, Z_AXIS_A);
 365:main.c        ****         printf("\n");
 366:main.c        ****         
 367:main.c        ****         CyDelay(50);
 368:main.c        ****     }
 369:main.c        **** }   
 370:main.c        **** //*/
 371:main.c        **** 
 372:main.c        **** 
 373:main.c        **** /*//reflectance//
 374:main.c        **** int main()
ARM GAS  C:\Users\allu9\AppData\Local\Temp\ccQ83gFK.s 			page 16


 375:main.c        **** {
 376:main.c        ****     struct sensors_ ref;
 377:main.c        ****     struct sensors_ dig;
 378:main.c        ****     CyGlobalIntEnable; 
 379:main.c        ****     UART_1_Start();
 380:main.c        ****   
 381:main.c        ****     sensor_isr_StartEx(sensor_isr_handler);
 382:main.c        ****     
 383:main.c        ****     reflectance_start();
 384:main.c        **** 
 385:main.c        ****     IR_led_Write(1);
 386:main.c        ****     for(;;)
 387:main.c        ****     {
 388:main.c        ****         reflectance_read(&ref);
 389:main.c        ****         printf("%d %d %d %d \r\n", ref.l3, ref.l1, ref.r1, ref.r3);       //print out each period o
 390:main.c        ****         reflectance_digital(&dig);      //print out 0 or 1 according to results of reflectance peri
 391:main.c        ****         printf("%d %d %d %d \r\n", dig.l3, dig.l1, dig.r1, dig.r3);        //print out 0 or 1 accor
 392:main.c        ****         
 393:main.c        ****         CyDelay(500);
 394:main.c        ****     }
 395:main.c        **** }   
 396:main.c        **** //*/
 397:main.c        **** 
 398:main.c        ****  /* //motor//
 399:main.c        **** int main()
 400:main.c        **** {
 401:main.c        ****     CyGlobalIntEnable; 
 402:main.c        ****     UART_1_Start();
 403:main.c        **** 
 404:main.c        **** 
 405:main.c        **** }
 406:main.c        **** //*/
 407:main.c        ****     
 408:main.c        **** 
 409:main.c        **** /*//gyroscope//
 410:main.c        **** int main()
 411:main.c        **** {
 412:main.c        ****     CyGlobalIntEnable; 
 413:main.c        ****     UART_1_Start();
 414:main.c        ****   
 415:main.c        ****     I2C_Start();
 416:main.c        ****   
 417:main.c        ****     uint8 X_L_G, X_H_G, Y_L_G, Y_H_G, Z_L_G, Z_H_G;
 418:main.c        ****     int16 X_AXIS_G, Y_AXIS_G, Z_AXIS_G;
 419:main.c        ****     
 420:main.c        ****     I2C_write(GYRO_ADDR, GYRO_CTRL1_REG, 0x0F);             // set gyroscope into active mode
 421:main.c        ****     I2C_write(GYRO_ADDR, GYRO_CTRL4_REG, 0x30);             // set full scale selection to 2000dps 
 422:main.c        ****     
 423:main.c        ****     for(;;)
 424:main.c        ****     {
 425:main.c        ****         //print out gyroscope output
 426:main.c        ****         X_L_G = I2C_read(GYRO_ADDR, OUT_X_AXIS_L);
 427:main.c        ****         X_H_G = I2C_read(GYRO_ADDR, OUT_X_AXIS_H);
 428:main.c        ****         X_AXIS_G = convert_raw(X_H_G, X_L_G);
 429:main.c        ****         
 430:main.c        ****         
 431:main.c        ****         Y_L_G = I2C_read(GYRO_ADDR, OUT_Y_AXIS_L);
ARM GAS  C:\Users\allu9\AppData\Local\Temp\ccQ83gFK.s 			page 17


 432:main.c        ****         Y_H_G = I2C_read(GYRO_ADDR, OUT_Y_AXIS_H);
 433:main.c        ****         Y_AXIS_G = convert_raw(Y_H_G, Y_L_G);
 434:main.c        ****         
 435:main.c        ****         
 436:main.c        ****         Z_L_G = I2C_read(GYRO_ADDR, OUT_Z_AXIS_L);
 437:main.c        ****         Z_H_G = I2C_read(GYRO_ADDR, OUT_Z_AXIS_H);
 438:main.c        ****         Z_AXIS_G = convert_raw(Z_H_G, Z_L_G);
 439:main.c        ****      
 440:main.c        ****         // If you want to print value
 441:main.c        ****         printf("%d %d %d \r\n", X_AXIS_G, Y_AXIS_G, Z_AXIS_G);
 442:main.c        ****         CyDelay(50);
 443:main.c        ****     }
 444:main.c        **** }   
 445:main.c        **** //*/
 446:main.c        **** 
 447:main.c        **** 
 448:main.c        **** /*//magnetometer//
 449:main.c        **** int main()
 450:main.c        **** {
 451:main.c        ****     CyGlobalIntEnable; 
 452:main.c        ****     UART_1_Start();
 453:main.c        ****   
 454:main.c        ****     I2C_Start();
 455:main.c        ****    
 456:main.c        ****     uint8 X_L_M, X_H_M, Y_L_M, Y_H_M, Z_L_M, Z_H_M;
 457:main.c        ****     int16 X_AXIS, Y_AXIS, Z_AXIS;
 458:main.c        ****     
 459:main.c        ****     I2C_write(GYRO_ADDR, GYRO_CTRL1_REG, 0x0F);             // set gyroscope into active mode
 460:main.c        ****     I2C_write(GYRO_ADDR, GYRO_CTRL4_REG, 0x30);             // set full scale selection to 2000dps
 461:main.c        ****     I2C_write(ACCEL_MAG_ADDR, ACCEL_CTRL1_REG, 0x37);           // set accelerometer & magnetometer
 462:main.c        ****     I2C_write(ACCEL_MAG_ADDR, ACCEL_CTRL7_REG, 0x22);
 463:main.c        ****     
 464:main.c        ****     
 465:main.c        ****     for(;;)
 466:main.c        ****     {
 467:main.c        ****         X_L_M = I2C_read(ACCEL_MAG_ADDR, OUT_X_L_M);
 468:main.c        ****         X_H_M = I2C_read(ACCEL_MAG_ADDR, OUT_X_H_M);
 469:main.c        ****         X_AXIS = convert_raw(X_L_M, X_H_M);
 470:main.c        ****         
 471:main.c        ****         Y_L_M = I2C_read(ACCEL_MAG_ADDR, OUT_Y_L_M);
 472:main.c        ****         Y_H_M = I2C_read(ACCEL_MAG_ADDR, OUT_Y_H_M);
 473:main.c        ****         Y_AXIS = convert_raw(Y_L_M, Y_H_M);
 474:main.c        ****         
 475:main.c        ****         Z_L_M = I2C_read(ACCEL_MAG_ADDR, OUT_Z_L_M);
 476:main.c        ****         Z_H_M = I2C_read(ACCEL_MAG_ADDR, OUT_Z_H_M);
 477:main.c        ****         Z_AXIS = convert_raw(Z_L_M, Z_H_M);
 478:main.c        ****         
 479:main.c        ****         heading(X_AXIS, Y_AXIS);
 480:main.c        ****         printf("MAGNET: %d %d %d %d %d %d \r\n", X_L_M, X_H_M, Y_L_M, Y_H_M, Z_L_M, Z_H_M);
 481:main.c        ****         printf("%d %d %d \r\n", X_AXIS,Y_AXIS, Z_AXIS);
 482:main.c        ****         CyDelay(50);      
 483:main.c        ****     }
 484:main.c        **** }   
 485:main.c        **** //*/
 486:main.c        **** 
 487:main.c        **** 
 488:main.c        **** #if 0
ARM GAS  C:\Users\allu9\AppData\Local\Temp\ccQ83gFK.s 			page 18


 489:main.c        **** int rread(void)
 490:main.c        **** {
 491:main.c        ****     SC0_SetDriveMode(PIN_DM_STRONG);
 492:main.c        ****     SC0_Write(1);
 493:main.c        ****     CyDelayUs(10);
 494:main.c        ****     SC0_SetDriveMode(PIN_DM_DIG_HIZ);
 495:main.c        ****     Timer_1_Start();
 496:main.c        ****     uint16_t start = Timer_1_ReadCounter();
 497:main.c        ****     uint16_t end = 0;
 498:main.c        ****     while(!(Timer_1_ReadStatusRegister() & Timer_1_STATUS_TC)) {
 499:main.c        ****         if(SC0_Read() == 0 && end == 0) {
 500:main.c        ****             end = Timer_1_ReadCounter();
 501:main.c        ****         }
 502:main.c        ****     }
 503:main.c        ****     Timer_1_Stop();
 504:main.c        ****     
 505:main.c        ****     return (start - end);
 506:main.c        **** }
 507:main.c        **** #endif
 508:main.c        **** 
 509:main.c        **** /* Don't remove the functions below */
 510:main.c        **** int _write(int file, char *ptr, int len)
 511:main.c        **** {
 418              		.loc 1 511 0
 419              		.cfi_startproc
 420              		@ args = 0, pretend = 0, frame = 0
 421              		@ frame_needed = 0, uses_anonymous_args = 0
 422              	.LVL70:
 423 0000 F8B5     		push	{r3, r4, r5, r6, r7, lr}
 424              		.cfi_def_cfa_offset 24
 425              		.cfi_offset 3, -24
 426              		.cfi_offset 4, -20
 427              		.cfi_offset 5, -16
 428              		.cfi_offset 6, -12
 429              		.cfi_offset 7, -8
 430              		.cfi_offset 14, -4
 431 0002 0C46     		mov	r4, r1
 432 0004 1746     		mov	r7, r2
 433              	.LVL71:
 512:main.c        ****     (void)file; /* Parameter is not used, suppress unused argument warning */
 513:main.c        **** 	int n;
 514:main.c        **** 	for(n = 0; n < len; n++) {
 434              		.loc 1 514 0
 435 0006 0025     		movs	r5, #0
 436 0008 0BE0     		b	.L27
 437              	.LVL72:
 438              	.L29:
 515:main.c        ****         if(*ptr == '\n') UART_1_PutChar('\r');
 439              		.loc 1 515 0
 440 000a 2378     		ldrb	r3, [r4]	@ zero_extendqisi2
 441 000c 0A2B     		cmp	r3, #10
 442 000e 02D1     		bne	.L28
 443              		.loc 1 515 0 is_stmt 0 discriminator 1
 444 0010 0D20     		movs	r0, #13
 445 0012 FFF7FEFF 		bl	UART_1_PutChar
 446              	.LVL73:
 447              	.L28:
ARM GAS  C:\Users\allu9\AppData\Local\Temp\ccQ83gFK.s 			page 19


 516:main.c        **** 		UART_1_PutChar(*ptr++);
 448              		.loc 1 516 0 is_stmt 1 discriminator 2
 449 0016 661C     		adds	r6, r4, #1
 450              	.LVL74:
 451 0018 2078     		ldrb	r0, [r4]	@ zero_extendqisi2
 452 001a FFF7FEFF 		bl	UART_1_PutChar
 453              	.LVL75:
 514:main.c        ****         if(*ptr == '\n') UART_1_PutChar('\r');
 454              		.loc 1 514 0 discriminator 2
 455 001e 0135     		adds	r5, r5, #1
 456              	.LVL76:
 457              		.loc 1 516 0 discriminator 2
 458 0020 3446     		mov	r4, r6
 459              	.LVL77:
 460              	.L27:
 514:main.c        ****         if(*ptr == '\n') UART_1_PutChar('\r');
 461              		.loc 1 514 0 discriminator 1
 462 0022 BD42     		cmp	r5, r7
 463 0024 F1DB     		blt	.L29
 517:main.c        **** 	}
 518:main.c        **** 	return len;
 519:main.c        **** }
 464              		.loc 1 519 0
 465 0026 3846     		mov	r0, r7
 466 0028 F8BD     		pop	{r3, r4, r5, r6, r7, pc}
 467              		.cfi_endproc
 468              	.LFE66:
 469              		.size	_write, .-_write
 470 002a 00BF     		.section	.text._read,"ax",%progbits
 471              		.align	2
 472              		.global	_read
 473              		.thumb
 474              		.thumb_func
 475              		.type	_read, %function
 476              	_read:
 477              	.LFB67:
 520:main.c        **** 
 521:main.c        **** int _read (int file, char *ptr, int count)
 522:main.c        **** {
 478              		.loc 1 522 0
 479              		.cfi_startproc
 480              		@ args = 0, pretend = 0, frame = 0
 481              		@ frame_needed = 0, uses_anonymous_args = 0
 482              	.LVL78:
 483 0000 F8B5     		push	{r3, r4, r5, r6, r7, lr}
 484              		.cfi_def_cfa_offset 24
 485              		.cfi_offset 3, -24
 486              		.cfi_offset 4, -20
 487              		.cfi_offset 5, -16
 488              		.cfi_offset 6, -12
 489              		.cfi_offset 7, -8
 490              		.cfi_offset 14, -4
 491 0002 0F46     		mov	r7, r1
 492 0004 1446     		mov	r4, r2
 493              	.LVL79:
 523:main.c        ****     int chs = 0;
 494              		.loc 1 523 0
ARM GAS  C:\Users\allu9\AppData\Local\Temp\ccQ83gFK.s 			page 20


 495 0006 0026     		movs	r6, #0
 524:main.c        ****     char ch;
 525:main.c        ****  
 526:main.c        ****     (void)file; /* Parameter is not used, suppress unused argument warning */
 527:main.c        ****     while(count > 0) {
 496              		.loc 1 527 0
 497 0008 12E0     		b	.L33
 498              	.LVL80:
 499              	.L36:
 528:main.c        ****         ch = UART_1_GetChar();
 500              		.loc 1 528 0
 501 000a FFF7FEFF 		bl	UART_1_GetChar
 502              	.LVL81:
 529:main.c        ****         if(ch != 0) {
 503              		.loc 1 529 0
 504 000e 0546     		mov	r5, r0
 505 0010 70B1     		cbz	r0, .L33
 530:main.c        ****             UART_1_PutChar(ch);
 506              		.loc 1 530 0
 507 0012 FFF7FEFF 		bl	UART_1_PutChar
 508              	.LVL82:
 531:main.c        ****             chs++;
 509              		.loc 1 531 0
 510 0016 0136     		adds	r6, r6, #1
 511              	.LVL83:
 532:main.c        ****             if(ch == '\r') {
 512              		.loc 1 532 0
 513 0018 0D2D     		cmp	r5, #13
 514 001a 03D1     		bne	.L34
 515              	.LVL84:
 533:main.c        ****                 ch = '\n';
 534:main.c        ****                 UART_1_PutChar(ch);
 516              		.loc 1 534 0
 517 001c 0A20     		movs	r0, #10
 518 001e FFF7FEFF 		bl	UART_1_PutChar
 519              	.LVL85:
 533:main.c        ****                 ch = '\n';
 520              		.loc 1 533 0
 521 0022 0A25     		movs	r5, #10
 522              	.LVL86:
 523              	.L34:
 535:main.c        ****             }
 536:main.c        ****             *ptr++ = ch;
 524              		.loc 1 536 0
 525 0024 7B1C     		adds	r3, r7, #1
 526              	.LVL87:
 527 0026 3D70     		strb	r5, [r7]
 537:main.c        ****             count--;
 528              		.loc 1 537 0
 529 0028 013C     		subs	r4, r4, #1
 530              	.LVL88:
 538:main.c        ****             if(ch == '\n') break;
 531              		.loc 1 538 0
 532 002a 0A2D     		cmp	r5, #10
 533 002c 02D0     		beq	.L35
 536:main.c        ****             count--;
 534              		.loc 1 536 0
ARM GAS  C:\Users\allu9\AppData\Local\Temp\ccQ83gFK.s 			page 21


 535 002e 1F46     		mov	r7, r3
 536              	.LVL89:
 537              	.L33:
 527:main.c        ****         ch = UART_1_GetChar();
 538              		.loc 1 527 0
 539 0030 002C     		cmp	r4, #0
 540 0032 EADC     		bgt	.L36
 541              	.LVL90:
 542              	.L35:
 539:main.c        ****         }
 540:main.c        ****     }
 541:main.c        ****     return chs;
 542:main.c        **** }
 543              		.loc 1 542 0
 544 0034 3046     		mov	r0, r6
 545 0036 F8BD     		pop	{r3, r4, r5, r6, r7, pc}
 546              		.cfi_endproc
 547              	.LFE67:
 548              		.size	_read, .-_read
 549              		.comm	threshold,8,4
 550              		.section	.rodata.str1.4,"aMS",%progbits,1
 551              		.align	2
 552              	.LC0:
 553 0000 25642025 		.ascii	"%d %f\015\012\000"
 553      660D0A00 
 554              	.LC1:
 555 0008 0A426F6F 		.ascii	"\012Boot\000"
 555      7400
 556 000e 0000     		.space	2
 557              	.LC2:
 558 0010 25642000 		.ascii	"%d \000"
 559              	.LC3:
 560 0014 25640A00 		.ascii	"%d\012\000"
 561              	.LC4:
 562 0018 25642025 		.ascii	"%d %d %d %d \015\012\000"
 562      64202564 
 562      20256420 
 562      0D0A00
 563              		.text
 564              	.Letext0:
 565              		.file 2 "c:\\program files (x86)\\cypress\\psoc creator\\4.1\\psoc creator\\import\\gnu\\arm\\5.4.
 566              		.file 3 "c:\\program files (x86)\\cypress\\psoc creator\\4.1\\psoc creator\\import\\gnu\\arm\\5.4.
 567              		.file 4 "Generated_Source\\PSoC5/cytypes.h"
 568              		.file 5 ".\\ZumoLibrary/Reflectance.h"
 569              		.file 6 "Generated_Source\\PSoC5/core_cm3.h"
 570              		.file 7 "Generated_Source\\PSoC5/ADC_Battery.h"
 571              		.file 8 "c:\\program files (x86)\\cypress\\psoc creator\\4.1\\psoc creator\\import\\gnu\\arm\\5.4.
 572              		.file 9 ".\\ZumoLibrary/Beep.h"
 573              		.file 10 "Generated_Source\\PSoC5/CyLib.h"
 574              		.file 11 "Generated_Source\\PSoC5/BatteryLed.h"
 575              		.file 12 ".\\ZumoLibrary/Motor.h"
 576              		.file 13 "Drive.h"
 577              		.file 14 "Generated_Source\\PSoC5/UART_1.h"
 578              		.file 15 "Generated_Source\\PSoC5/sensor_isr.h"
 579              		.file 16 "Generated_Source\\PSoC5/IR_led.h"
 580              		.file 17 "Generated_Source\\PSoC5/SW1.h"
 581              		.file 18 "<built-in>"
ARM GAS  C:\Users\allu9\AppData\Local\Temp\ccQ83gFK.s 			page 22

