ARM GAS  C:\Users\allu9\AppData\Local\Temp\ccXNovjc.s 			page 1


   1              		.syntax unified
   2              		.cpu cortex-m3
   3              		.fpu softvfp
   4              		.eabi_attribute 20, 1
   5              		.eabi_attribute 21, 1
   6              		.eabi_attribute 23, 3
   7              		.eabi_attribute 24, 1
   8              		.eabi_attribute 25, 1
   9              		.eabi_attribute 26, 1
  10              		.eabi_attribute 30, 1
  11              		.eabi_attribute 34, 1
  12              		.eabi_attribute 18, 4
  13              		.thumb
  14              		.syntax unified
  15              		.file	"Motor.c"
  16              		.text
  17              	.Ltext0:
  18              		.cfi_sections	.debug_frame
  19              		.section	.text.motor_start,"ax",%progbits
  20              		.align	2
  21              		.global	motor_start
  22              		.thumb
  23              		.thumb_func
  24              		.type	motor_start, %function
  25              	motor_start:
  26              	.LFB63:
  27              		.file 1 "ZumoLibrary\\Motor.c"
   1:ZumoLibrary/Motor.c **** /**
   2:ZumoLibrary/Motor.c ****  * @file    Motor.c
   3:ZumoLibrary/Motor.c ****  * @brief   Basic methods for operating motor sensor. For more details, please refer to Motor.h fil
   4:ZumoLibrary/Motor.c ****  * @details included in Zumo shield
   5:ZumoLibrary/Motor.c **** */
   6:ZumoLibrary/Motor.c **** #include "Motor.h"
   7:ZumoLibrary/Motor.c **** 
   8:ZumoLibrary/Motor.c **** 
   9:ZumoLibrary/Motor.c **** /**
  10:ZumoLibrary/Motor.c **** * @brief    Starting motor sensors
  11:ZumoLibrary/Motor.c **** * @details  
  12:ZumoLibrary/Motor.c **** */
  13:ZumoLibrary/Motor.c **** void motor_start()
  14:ZumoLibrary/Motor.c **** {
  28              		.loc 1 14 0
  29              		.cfi_startproc
  30              		@ args = 0, pretend = 0, frame = 0
  31              		@ frame_needed = 0, uses_anonymous_args = 0
  32 0000 08B5     		push	{r3, lr}
  33              		.cfi_def_cfa_offset 8
  34              		.cfi_offset 3, -8
  35              		.cfi_offset 14, -4
  15:ZumoLibrary/Motor.c ****     PWM_Start();
  36              		.loc 1 15 0
  37 0002 FFF7FEFF 		bl	PWM_Start
  38              	.LVL0:
  39 0006 08BD     		pop	{r3, pc}
  40              		.cfi_endproc
  41              	.LFE63:
  42              		.size	motor_start, .-motor_start
ARM GAS  C:\Users\allu9\AppData\Local\Temp\ccXNovjc.s 			page 2


  43              		.section	.text.motor_stop,"ax",%progbits
  44              		.align	2
  45              		.global	motor_stop
  46              		.thumb
  47              		.thumb_func
  48              		.type	motor_stop, %function
  49              	motor_stop:
  50              	.LFB64:
  16:ZumoLibrary/Motor.c **** }
  17:ZumoLibrary/Motor.c **** 
  18:ZumoLibrary/Motor.c **** 
  19:ZumoLibrary/Motor.c **** /**
  20:ZumoLibrary/Motor.c **** * @brief    Stopping motor sensors
  21:ZumoLibrary/Motor.c **** * @details
  22:ZumoLibrary/Motor.c **** */
  23:ZumoLibrary/Motor.c **** void motor_stop()
  24:ZumoLibrary/Motor.c **** {
  51              		.loc 1 24 0
  52              		.cfi_startproc
  53              		@ args = 0, pretend = 0, frame = 0
  54              		@ frame_needed = 0, uses_anonymous_args = 0
  55 0000 08B5     		push	{r3, lr}
  56              		.cfi_def_cfa_offset 8
  57              		.cfi_offset 3, -8
  58              		.cfi_offset 14, -4
  25:ZumoLibrary/Motor.c ****     PWM_Stop();
  59              		.loc 1 25 0
  60 0002 FFF7FEFF 		bl	PWM_Stop
  61              	.LVL1:
  62 0006 08BD     		pop	{r3, pc}
  63              		.cfi_endproc
  64              	.LFE64:
  65              		.size	motor_stop, .-motor_stop
  66              		.section	.text.motor_forward,"ax",%progbits
  67              		.align	2
  68              		.global	motor_forward
  69              		.thumb
  70              		.thumb_func
  71              		.type	motor_forward, %function
  72              	motor_forward:
  73              	.LFB65:
  26:ZumoLibrary/Motor.c **** }
  27:ZumoLibrary/Motor.c **** 
  28:ZumoLibrary/Motor.c **** 
  29:ZumoLibrary/Motor.c **** /**
  30:ZumoLibrary/Motor.c **** * @brief    Moving motors forward
  31:ZumoLibrary/Motor.c **** * @details  giveing same speed to each side of PWM to make motors go forward
  32:ZumoLibrary/Motor.c **** * @param    uint8 speed : speed value
  33:ZumoLibrary/Motor.c **** * @param    uint32 delay : delay time
  34:ZumoLibrary/Motor.c **** */
  35:ZumoLibrary/Motor.c **** void motor_forward(uint8 speed,uint32 delay)
  36:ZumoLibrary/Motor.c **** {
  74              		.loc 1 36 0
  75              		.cfi_startproc
  76              		@ args = 0, pretend = 0, frame = 0
  77              		@ frame_needed = 0, uses_anonymous_args = 0
  78              	.LVL2:
ARM GAS  C:\Users\allu9\AppData\Local\Temp\ccXNovjc.s 			page 3


  79 0000 38B5     		push	{r3, r4, r5, lr}
  80              		.cfi_def_cfa_offset 16
  81              		.cfi_offset 3, -16
  82              		.cfi_offset 4, -12
  83              		.cfi_offset 5, -8
  84              		.cfi_offset 14, -4
  85 0002 0446     		mov	r4, r0
  86 0004 0D46     		mov	r5, r1
  37:ZumoLibrary/Motor.c ****     MotorDirLeft_Write(0);      // set LeftMotor forward mode
  87              		.loc 1 37 0
  88 0006 0020     		movs	r0, #0
  89              	.LVL3:
  90 0008 FFF7FEFF 		bl	MotorDirLeft_Write
  91              	.LVL4:
  38:ZumoLibrary/Motor.c ****     MotorDirRight_Write(0);     // set RightMotor forward mode
  92              		.loc 1 38 0
  93 000c 0020     		movs	r0, #0
  94 000e FFF7FEFF 		bl	MotorDirRight_Write
  95              	.LVL5:
  39:ZumoLibrary/Motor.c ****     PWM_WriteCompare1(speed); 
  96              		.loc 1 39 0
  97 0012 2046     		mov	r0, r4
  98 0014 FFF7FEFF 		bl	PWM_WriteCompare1
  99              	.LVL6:
  40:ZumoLibrary/Motor.c ****     PWM_WriteCompare2(speed); 
 100              		.loc 1 40 0
 101 0018 2046     		mov	r0, r4
 102 001a FFF7FEFF 		bl	PWM_WriteCompare2
 103              	.LVL7:
  41:ZumoLibrary/Motor.c ****     CyDelay(delay);
 104              		.loc 1 41 0
 105 001e 2846     		mov	r0, r5
 106 0020 FFF7FEFF 		bl	CyDelay
 107              	.LVL8:
 108 0024 38BD     		pop	{r3, r4, r5, pc}
 109              		.cfi_endproc
 110              	.LFE65:
 111              		.size	motor_forward, .-motor_forward
 112 0026 00BF     		.section	.text.motor_turn,"ax",%progbits
 113              		.align	2
 114              		.global	motor_turn
 115              		.thumb
 116              		.thumb_func
 117              		.type	motor_turn, %function
 118              	motor_turn:
 119              	.LFB66:
  42:ZumoLibrary/Motor.c **** }
  43:ZumoLibrary/Motor.c **** 
  44:ZumoLibrary/Motor.c **** 
  45:ZumoLibrary/Motor.c **** /**
  46:ZumoLibrary/Motor.c **** * @brief    Moving motors to make a turn 
  47:ZumoLibrary/Motor.c **** * @details  moving left when l_speed < r_speed or moving right when l_speed > r_speed
  48:ZumoLibrary/Motor.c **** * @param    uint8 l_speed : left motor speed value
  49:ZumoLibrary/Motor.c **** * @param    uint8 r_speed : right motor speed value
  50:ZumoLibrary/Motor.c **** * @param    uint32 delay : delay time
  51:ZumoLibrary/Motor.c **** */
  52:ZumoLibrary/Motor.c **** void motor_turn(uint8 l_speed, uint8 r_speed, uint32 delay)
ARM GAS  C:\Users\allu9\AppData\Local\Temp\ccXNovjc.s 			page 4


  53:ZumoLibrary/Motor.c **** {
 120              		.loc 1 53 0
 121              		.cfi_startproc
 122              		@ args = 0, pretend = 0, frame = 0
 123              		@ frame_needed = 0, uses_anonymous_args = 0
 124              	.LVL9:
 125 0000 70B5     		push	{r4, r5, r6, lr}
 126              		.cfi_def_cfa_offset 16
 127              		.cfi_offset 4, -16
 128              		.cfi_offset 5, -12
 129              		.cfi_offset 6, -8
 130              		.cfi_offset 14, -4
 131 0002 0646     		mov	r6, r0
 132 0004 0D46     		mov	r5, r1
 133 0006 1446     		mov	r4, r2
  54:ZumoLibrary/Motor.c ****     MotorDirLeft_Write(0);      // set LeftMotor forward mode
 134              		.loc 1 54 0
 135 0008 0020     		movs	r0, #0
 136              	.LVL10:
 137 000a FFF7FEFF 		bl	MotorDirLeft_Write
 138              	.LVL11:
  55:ZumoLibrary/Motor.c ****     MotorDirRight_Write(0);     // set RightMotor forward mode
 139              		.loc 1 55 0
 140 000e 0020     		movs	r0, #0
 141 0010 FFF7FEFF 		bl	MotorDirRight_Write
 142              	.LVL12:
  56:ZumoLibrary/Motor.c ****     PWM_WriteCompare1(l_speed); 
 143              		.loc 1 56 0
 144 0014 3046     		mov	r0, r6
 145 0016 FFF7FEFF 		bl	PWM_WriteCompare1
 146              	.LVL13:
  57:ZumoLibrary/Motor.c ****     PWM_WriteCompare2(r_speed); 
 147              		.loc 1 57 0
 148 001a 2846     		mov	r0, r5
 149 001c FFF7FEFF 		bl	PWM_WriteCompare2
 150              	.LVL14:
  58:ZumoLibrary/Motor.c ****     CyDelay(delay);
 151              		.loc 1 58 0
 152 0020 2046     		mov	r0, r4
 153 0022 FFF7FEFF 		bl	CyDelay
 154              	.LVL15:
 155 0026 70BD     		pop	{r4, r5, r6, pc}
 156              		.cfi_endproc
 157              	.LFE66:
 158              		.size	motor_turn, .-motor_turn
 159              		.section	.text.motor_turnb,"ax",%progbits
 160              		.align	2
 161              		.global	motor_turnb
 162              		.thumb
 163              		.thumb_func
 164              		.type	motor_turnb, %function
 165              	motor_turnb:
 166              	.LFB67:
  59:ZumoLibrary/Motor.c **** }
  60:ZumoLibrary/Motor.c **** 
  61:ZumoLibrary/Motor.c **** void motor_turnb(uint8 l_speed, uint8 r_speed, uint32 delay)
  62:ZumoLibrary/Motor.c **** {
ARM GAS  C:\Users\allu9\AppData\Local\Temp\ccXNovjc.s 			page 5


 167              		.loc 1 62 0
 168              		.cfi_startproc
 169              		@ args = 0, pretend = 0, frame = 0
 170              		@ frame_needed = 0, uses_anonymous_args = 0
 171              	.LVL16:
 172 0000 70B5     		push	{r4, r5, r6, lr}
 173              		.cfi_def_cfa_offset 16
 174              		.cfi_offset 4, -16
 175              		.cfi_offset 5, -12
 176              		.cfi_offset 6, -8
 177              		.cfi_offset 14, -4
 178 0002 0646     		mov	r6, r0
 179 0004 0D46     		mov	r5, r1
 180 0006 1446     		mov	r4, r2
  63:ZumoLibrary/Motor.c ****     MotorDirLeft_Write(1);      // set LeftMotor forward mode
 181              		.loc 1 63 0
 182 0008 0120     		movs	r0, #1
 183              	.LVL17:
 184 000a FFF7FEFF 		bl	MotorDirLeft_Write
 185              	.LVL18:
  64:ZumoLibrary/Motor.c ****     MotorDirRight_Write(1);     // set RightMotor forward mode
 186              		.loc 1 64 0
 187 000e 0120     		movs	r0, #1
 188 0010 FFF7FEFF 		bl	MotorDirRight_Write
 189              	.LVL19:
  65:ZumoLibrary/Motor.c ****     PWM_WriteCompare1(l_speed); 
 190              		.loc 1 65 0
 191 0014 3046     		mov	r0, r6
 192 0016 FFF7FEFF 		bl	PWM_WriteCompare1
 193              	.LVL20:
  66:ZumoLibrary/Motor.c ****     PWM_WriteCompare2(r_speed); 
 194              		.loc 1 66 0
 195 001a 2846     		mov	r0, r5
 196 001c FFF7FEFF 		bl	PWM_WriteCompare2
 197              	.LVL21:
  67:ZumoLibrary/Motor.c ****     CyDelay(delay);
 198              		.loc 1 67 0
 199 0020 2046     		mov	r0, r4
 200 0022 FFF7FEFF 		bl	CyDelay
 201              	.LVL22:
 202 0026 70BD     		pop	{r4, r5, r6, pc}
 203              		.cfi_endproc
 204              	.LFE67:
 205              		.size	motor_turnb, .-motor_turnb
 206              		.section	.text.motor_backward,"ax",%progbits
 207              		.align	2
 208              		.global	motor_backward
 209              		.thumb
 210              		.thumb_func
 211              		.type	motor_backward, %function
 212              	motor_backward:
 213              	.LFB68:
  68:ZumoLibrary/Motor.c **** }
  69:ZumoLibrary/Motor.c **** 
  70:ZumoLibrary/Motor.c **** /**
  71:ZumoLibrary/Motor.c **** * @brief    Moving motors backward
  72:ZumoLibrary/Motor.c **** * @details  setting backward mode to each motors and gives same speed to each side of PWM
ARM GAS  C:\Users\allu9\AppData\Local\Temp\ccXNovjc.s 			page 6


  73:ZumoLibrary/Motor.c **** * @param    uint8 speed : speed value
  74:ZumoLibrary/Motor.c **** * @param    uint32 delay : delay time
  75:ZumoLibrary/Motor.c **** */
  76:ZumoLibrary/Motor.c **** void motor_backward(uint8 speed,uint32 delay)
  77:ZumoLibrary/Motor.c **** {
 214              		.loc 1 77 0
 215              		.cfi_startproc
 216              		@ args = 0, pretend = 0, frame = 0
 217              		@ frame_needed = 0, uses_anonymous_args = 0
 218              	.LVL23:
 219 0000 38B5     		push	{r3, r4, r5, lr}
 220              		.cfi_def_cfa_offset 16
 221              		.cfi_offset 3, -16
 222              		.cfi_offset 4, -12
 223              		.cfi_offset 5, -8
 224              		.cfi_offset 14, -4
 225 0002 0446     		mov	r4, r0
 226 0004 0D46     		mov	r5, r1
  78:ZumoLibrary/Motor.c ****     MotorDirLeft_Write(1);      // set LeftMotor backward mode
 227              		.loc 1 78 0
 228 0006 0120     		movs	r0, #1
 229              	.LVL24:
 230 0008 FFF7FEFF 		bl	MotorDirLeft_Write
 231              	.LVL25:
  79:ZumoLibrary/Motor.c ****     MotorDirRight_Write(1);     // set RightMotor backward mode
 232              		.loc 1 79 0
 233 000c 0120     		movs	r0, #1
 234 000e FFF7FEFF 		bl	MotorDirRight_Write
 235              	.LVL26:
  80:ZumoLibrary/Motor.c ****     PWM_WriteCompare1(speed); 
 236              		.loc 1 80 0
 237 0012 2046     		mov	r0, r4
 238 0014 FFF7FEFF 		bl	PWM_WriteCompare1
 239              	.LVL27:
  81:ZumoLibrary/Motor.c ****     PWM_WriteCompare2(speed); 
 240              		.loc 1 81 0
 241 0018 2046     		mov	r0, r4
 242 001a FFF7FEFF 		bl	PWM_WriteCompare2
 243              	.LVL28:
  82:ZumoLibrary/Motor.c ****     CyDelay(delay);
 244              		.loc 1 82 0
 245 001e 2846     		mov	r0, r5
 246 0020 FFF7FEFF 		bl	CyDelay
 247              	.LVL29:
 248 0024 38BD     		pop	{r3, r4, r5, pc}
 249              		.cfi_endproc
 250              	.LFE68:
 251              		.size	motor_backward, .-motor_backward
 252 0026 00BF     		.section	.text.motor_sharp_turn,"ax",%progbits
 253              		.align	2
 254              		.global	motor_sharp_turn
 255              		.thumb
 256              		.thumb_func
 257              		.type	motor_sharp_turn, %function
 258              	motor_sharp_turn:
 259              	.LFB69:
  83:ZumoLibrary/Motor.c **** }
ARM GAS  C:\Users\allu9\AppData\Local\Temp\ccXNovjc.s 			page 7


  84:ZumoLibrary/Motor.c **** void motor_sharp_turn(int l_dir, int r_dir, uint8 l_speed, uint8 r_speed, uint32 delay)
  85:ZumoLibrary/Motor.c **** {
 260              		.loc 1 85 0
 261              		.cfi_startproc
 262              		@ args = 4, pretend = 0, frame = 0
 263              		@ frame_needed = 0, uses_anonymous_args = 0
 264              	.LVL30:
 265 0000 70B5     		push	{r4, r5, r6, lr}
 266              		.cfi_def_cfa_offset 16
 267              		.cfi_offset 4, -16
 268              		.cfi_offset 5, -12
 269              		.cfi_offset 6, -8
 270              		.cfi_offset 14, -4
 271 0002 0E46     		mov	r6, r1
 272 0004 1546     		mov	r5, r2
 273 0006 1C46     		mov	r4, r3
  86:ZumoLibrary/Motor.c ****     MotorDirLeft_Write(l_dir);
 274              		.loc 1 86 0
 275 0008 C0B2     		uxtb	r0, r0
 276              	.LVL31:
 277 000a FFF7FEFF 		bl	MotorDirLeft_Write
 278              	.LVL32:
  87:ZumoLibrary/Motor.c ****     MotorDirRight_Write(r_dir);
 279              		.loc 1 87 0
 280 000e F0B2     		uxtb	r0, r6
 281 0010 FFF7FEFF 		bl	MotorDirRight_Write
 282              	.LVL33:
  88:ZumoLibrary/Motor.c ****     PWM_WriteCompare1(l_speed);
 283              		.loc 1 88 0
 284 0014 2846     		mov	r0, r5
 285 0016 FFF7FEFF 		bl	PWM_WriteCompare1
 286              	.LVL34:
  89:ZumoLibrary/Motor.c ****     PWM_WriteCompare2(r_speed);
 287              		.loc 1 89 0
 288 001a 2046     		mov	r0, r4
 289 001c FFF7FEFF 		bl	PWM_WriteCompare2
 290              	.LVL35:
  90:ZumoLibrary/Motor.c ****     CyDelay(delay);
 291              		.loc 1 90 0
 292 0020 0498     		ldr	r0, [sp, #16]
 293 0022 FFF7FEFF 		bl	CyDelay
 294              	.LVL36:
 295 0026 70BD     		pop	{r4, r5, r6, pc}
 296              		.cfi_endproc
 297              	.LFE69:
 298              		.size	motor_sharp_turn, .-motor_sharp_turn
 299              		.text
 300              	.Letext0:
 301              		.file 2 "c:\\program files (x86)\\cypress\\psoc creator\\4.1\\psoc creator\\import\\gnu\\arm\\5.4.
 302              		.file 3 "c:\\program files (x86)\\cypress\\psoc creator\\4.1\\psoc creator\\import\\gnu\\arm\\5.4.
 303              		.file 4 "Generated_Source\\PSoC5/cytypes.h"
 304              		.file 5 "Generated_Source\\PSoC5/PWM.h"
 305              		.file 6 "Generated_Source\\PSoC5/MotorDirLeft.h"
 306              		.file 7 "Generated_Source\\PSoC5/MotorDirRight.h"
 307              		.file 8 "Generated_Source\\PSoC5/CyLib.h"
 308              		.file 9 "Generated_Source\\PSoC5/core_cm3.h"